
riscv-spike.elf:     file format elf64-littleriscv


Disassembly of section .text:

0000000080000000 <boot>:
    80000000:	00002fb7          	lui	t6,0x2
    80000004:	800f8f9b          	addiw	t6,t6,-2048
    80000008:	300f9073          	csrw	mstatus,t6
    8000000c:	0040006f          	j	80000010 <_mstart>

0000000080000010 <_mstart>:
    80000010:	00000297          	auipc	t0,0x0
    80000014:	11c28293          	addi	t0,t0,284 # 8000012c <trap_entry>
    80000018:	30529073          	csrw	mtvec,t0
    8000001c:	00000093          	li	ra,0
    80000020:	00000113          	li	sp,0
    80000024:	00000193          	li	gp,0
    80000028:	00000213          	li	tp,0
    8000002c:	00000293          	li	t0,0
    80000030:	00000313          	li	t1,0
    80000034:	00000393          	li	t2,0
    80000038:	00000413          	li	s0,0
    8000003c:	00000493          	li	s1,0
    80000040:	00000513          	li	a0,0
    80000044:	00000593          	li	a1,0
    80000048:	00000613          	li	a2,0
    8000004c:	00000693          	li	a3,0
    80000050:	00000713          	li	a4,0
    80000054:	00000793          	li	a5,0
    80000058:	00000813          	li	a6,0
    8000005c:	00000893          	li	a7,0
    80000060:	00000913          	li	s2,0
    80000064:	00000993          	li	s3,0
    80000068:	00000a13          	li	s4,0
    8000006c:	00000a93          	li	s5,0
    80000070:	00000b13          	li	s6,0
    80000074:	00000b93          	li	s7,0
    80000078:	00000c13          	li	s8,0
    8000007c:	00000c93          	li	s9,0
    80000080:	00000d13          	li	s10,0
    80000084:	00000d93          	li	s11,0
    80000088:	00000e13          	li	t3,0
    8000008c:	00000e93          	li	t4,0
    80000090:	00000f13          	li	t5,0
    80000094:	00000f93          	li	t6,0
    80000098:	00022197          	auipc	gp,0x22
    8000009c:	62018193          	addi	gp,gp,1568 # 800226b8 <_gp>

00000000800000a0 <init_bss>:
    800000a0:	00022517          	auipc	a0,0x22
    800000a4:	ee050513          	addi	a0,a0,-288 # 80021f80 <xStartContext>
    800000a8:	0008d597          	auipc	a1,0x8d
    800000ac:	67058593          	addi	a1,a1,1648 # 8008d718 <ulLastLoopCounter.1>
    800000b0:	00000613          	li	a2,0
    800000b4:	1a8000ef          	jal	ra,8000025c <fill_block>

00000000800000b8 <init_sbss>:
    800000b8:	00022517          	auipc	a0,0x22
    800000bc:	d0850513          	addi	a0,a0,-760 # 80021dc0 <pxCurrentTCB>
    800000c0:	00022597          	auipc	a1,0x22
    800000c4:	df058593          	addi	a1,a1,-528 # 80021eb0 <xCreatedTask>
    800000c8:	00000613          	li	a2,0
    800000cc:	190000ef          	jal	ra,8000025c <fill_block>

00000000800000d0 <write_stack_pattern>:
    800000d0:	0008e517          	auipc	a0,0x8e
    800000d4:	65050513          	addi	a0,a0,1616 # 8008e720 <_heap_end>
    800000d8:	0008f597          	auipc	a1,0x8f
    800000dc:	64058593          	addi	a1,a1,1600 # 8008f718 <_heap_end+0xff8>
    800000e0:	000ac637          	lui	a2,0xac
    800000e4:	abb6061b          	addiw	a2,a2,-1349
    800000e8:	00c61613          	slli	a2,a2,0xc
    800000ec:	bab60613          	addi	a2,a2,-1109 # abbab <_HEAP_SIZE+0xaabab>
    800000f0:	16c000ef          	jal	ra,8000025c <fill_block>

00000000800000f4 <init_stack>:
    800000f4:	0008f117          	auipc	sp,0x8f
    800000f8:	62c10113          	addi	sp,sp,1580 # 8008f720 <__stack>
    800000fc:	1b40706f          	j	800072b0 <vSyscallInit>

0000000080000100 <interrupt>:
    80000100:	00129293          	slli	t0,t0,0x1
    80000104:	0012d293          	srli	t0,t0,0x1
    80000108:	ffd28293          	addi	t0,t0,-3
    8000010c:	00028a63          	beqz	t0,80000120 <softwareInterrupt>
    80000110:	00013283          	ld	t0,0(sp)
    80000114:	00810113          	addi	sp,sp,8
    80000118:	1580006f          	j	80000270 <TIMER_CMP_INT>
    8000011c:	30200073          	mret

0000000080000120 <softwareInterrupt>:
    80000120:	00013283          	ld	t0,0(sp)
    80000124:	00810113          	addi	sp,sp,8
    80000128:	30200073          	mret

000000008000012c <trap_entry>:
    8000012c:	ff810113          	addi	sp,sp,-8
    80000130:	00513023          	sd	t0,0(sp)
    80000134:	342022f3          	csrr	t0,mcause
    80000138:	fc02c4e3          	bltz	t0,80000100 <interrupt>
    8000013c:	00013283          	ld	t0,0(sp)
    80000140:	00810113          	addi	sp,sp,8
    80000144:	f0810113          	addi	sp,sp,-248
    80000148:	00113423          	sd	ra,8(sp)
    8000014c:	00213823          	sd	sp,16(sp)
    80000150:	00313c23          	sd	gp,24(sp)
    80000154:	02413023          	sd	tp,32(sp)
    80000158:	02513423          	sd	t0,40(sp)
    8000015c:	02613823          	sd	t1,48(sp)
    80000160:	02713c23          	sd	t2,56(sp)
    80000164:	04813023          	sd	s0,64(sp)
    80000168:	04913423          	sd	s1,72(sp)
    8000016c:	04a13823          	sd	a0,80(sp)
    80000170:	04b13c23          	sd	a1,88(sp)
    80000174:	06c13023          	sd	a2,96(sp)
    80000178:	06d13423          	sd	a3,104(sp)
    8000017c:	06e13823          	sd	a4,112(sp)
    80000180:	06f13c23          	sd	a5,120(sp)
    80000184:	09013023          	sd	a6,128(sp)
    80000188:	09113423          	sd	a7,136(sp)
    8000018c:	09213823          	sd	s2,144(sp)
    80000190:	09313c23          	sd	s3,152(sp)
    80000194:	0b413023          	sd	s4,160(sp)
    80000198:	0b513423          	sd	s5,168(sp)
    8000019c:	0b613823          	sd	s6,176(sp)
    800001a0:	0b713c23          	sd	s7,184(sp)
    800001a4:	0d813023          	sd	s8,192(sp)
    800001a8:	0d913423          	sd	s9,200(sp)
    800001ac:	0da13823          	sd	s10,208(sp)
    800001b0:	0db13c23          	sd	s11,216(sp)
    800001b4:	0fc13023          	sd	t3,224(sp)
    800001b8:	0fd13423          	sd	t4,232(sp)
    800001bc:	0fe13823          	sd	t5,240(sp)
    800001c0:	0ff13c23          	sd	t6,248(sp)
    800001c4:	34202573          	csrr	a0,mcause
    800001c8:	341025f3          	csrr	a1,mepc
    800001cc:	00010613          	mv	a2,sp
    800001d0:	118070ef          	jal	ra,800072e8 <ulSyscallTrap>
    800001d4:	34151073          	csrw	mepc,a0
    800001d8:	00813083          	ld	ra,8(sp)
    800001dc:	01013103          	ld	sp,16(sp)
    800001e0:	01813183          	ld	gp,24(sp)
    800001e4:	02013203          	ld	tp,32(sp)
    800001e8:	02813283          	ld	t0,40(sp)
    800001ec:	03013303          	ld	t1,48(sp)
    800001f0:	03813383          	ld	t2,56(sp)
    800001f4:	04013403          	ld	s0,64(sp)
    800001f8:	04813483          	ld	s1,72(sp)
    800001fc:	05013503          	ld	a0,80(sp)
    80000200:	05813583          	ld	a1,88(sp)
    80000204:	06013603          	ld	a2,96(sp)
    80000208:	06813683          	ld	a3,104(sp)
    8000020c:	07013703          	ld	a4,112(sp)
    80000210:	07813783          	ld	a5,120(sp)
    80000214:	08013803          	ld	a6,128(sp)
    80000218:	08813883          	ld	a7,136(sp)
    8000021c:	09013903          	ld	s2,144(sp)
    80000220:	09813983          	ld	s3,152(sp)
    80000224:	0a013a03          	ld	s4,160(sp)
    80000228:	0a813a83          	ld	s5,168(sp)
    8000022c:	0b013b03          	ld	s6,176(sp)
    80000230:	0b813b83          	ld	s7,184(sp)
    80000234:	0c013c03          	ld	s8,192(sp)
    80000238:	0c813c83          	ld	s9,200(sp)
    8000023c:	0d013d03          	ld	s10,208(sp)
    80000240:	0d813d83          	ld	s11,216(sp)
    80000244:	0e013e03          	ld	t3,224(sp)
    80000248:	0e813e83          	ld	t4,232(sp)
    8000024c:	0f013f03          	ld	t5,240(sp)
    80000250:	0f813f83          	ld	t6,248(sp)
    80000254:	0f810113          	addi	sp,sp,248
    80000258:	30200073          	mret

000000008000025c <fill_block>:
    8000025c:	00c52023          	sw	a2,0(a0)
    80000260:	00b57663          	bgeu	a0,a1,8000026c <fb_end>
    80000264:	00450513          	addi	a0,a0,4
    80000268:	ff5ff06f          	j	8000025c <fill_block>

000000008000026c <fb_end>:
    8000026c:	00008067          	ret

0000000080000270 <TIMER_CMP_INT>:
    80000270:	f0010113          	addi	sp,sp,-256
    80000274:	00113023          	sd	ra,0(sp)
    80000278:	00213423          	sd	sp,8(sp)
    8000027c:	00313823          	sd	gp,16(sp)
    80000280:	00413c23          	sd	tp,24(sp)
    80000284:	02513023          	sd	t0,32(sp)
    80000288:	02613423          	sd	t1,40(sp)
    8000028c:	02713823          	sd	t2,48(sp)
    80000290:	02813c23          	sd	s0,56(sp)
    80000294:	04913023          	sd	s1,64(sp)
    80000298:	04a13423          	sd	a0,72(sp)
    8000029c:	04b13823          	sd	a1,80(sp)
    800002a0:	04c13c23          	sd	a2,88(sp)
    800002a4:	06d13023          	sd	a3,96(sp)
    800002a8:	06e13423          	sd	a4,104(sp)
    800002ac:	06f13823          	sd	a5,112(sp)
    800002b0:	07013c23          	sd	a6,120(sp)
    800002b4:	09113023          	sd	a7,128(sp)
    800002b8:	09213423          	sd	s2,136(sp)
    800002bc:	09313823          	sd	s3,144(sp)
    800002c0:	09413c23          	sd	s4,152(sp)
    800002c4:	0b513023          	sd	s5,160(sp)
    800002c8:	0b613423          	sd	s6,168(sp)
    800002cc:	0b713823          	sd	s7,176(sp)
    800002d0:	0b813c23          	sd	s8,184(sp)
    800002d4:	0d913023          	sd	s9,192(sp)
    800002d8:	0da13423          	sd	s10,200(sp)
    800002dc:	0db13823          	sd	s11,208(sp)
    800002e0:	0dc13c23          	sd	t3,216(sp)
    800002e4:	0fd13023          	sd	t4,224(sp)
    800002e8:	0fe13423          	sd	t5,232(sp)
    800002ec:	0ff13823          	sd	t6,240(sp)
    800002f0:	00022297          	auipc	t0,0x22
    800002f4:	ad02b283          	ld	t0,-1328(t0) # 80021dc0 <pxCurrentTCB>
    800002f8:	0022b023          	sd	sp,0(t0)
    800002fc:	341022f3          	csrr	t0,mepc
    80000300:	0e513c23          	sd	t0,248(sp)
    80000304:	4e4000ef          	jal	ra,800007e8 <vPortSysTickHandler>
    80000308:	00022117          	auipc	sp,0x22
    8000030c:	ab813103          	ld	sp,-1352(sp) # 80021dc0 <pxCurrentTCB>
    80000310:	00013103          	ld	sp,0(sp)
    80000314:	0f813283          	ld	t0,248(sp)
    80000318:	34129073          	csrw	mepc,t0
    8000031c:	000022b7          	lui	t0,0x2
    80000320:	8802829b          	addiw	t0,t0,-1920
    80000324:	3002a073          	csrs	mstatus,t0
    80000328:	00013083          	ld	ra,0(sp)
    8000032c:	01813203          	ld	tp,24(sp)
    80000330:	02013283          	ld	t0,32(sp)
    80000334:	02813303          	ld	t1,40(sp)
    80000338:	03013383          	ld	t2,48(sp)
    8000033c:	03813403          	ld	s0,56(sp)
    80000340:	04013483          	ld	s1,64(sp)
    80000344:	04813503          	ld	a0,72(sp)
    80000348:	05013583          	ld	a1,80(sp)
    8000034c:	05813603          	ld	a2,88(sp)
    80000350:	06013683          	ld	a3,96(sp)
    80000354:	06813703          	ld	a4,104(sp)
    80000358:	07013783          	ld	a5,112(sp)
    8000035c:	07813803          	ld	a6,120(sp)
    80000360:	08013883          	ld	a7,128(sp)
    80000364:	08813903          	ld	s2,136(sp)
    80000368:	09013983          	ld	s3,144(sp)
    8000036c:	09813a03          	ld	s4,152(sp)
    80000370:	0a013a83          	ld	s5,160(sp)
    80000374:	0a813b03          	ld	s6,168(sp)
    80000378:	0b013b83          	ld	s7,176(sp)
    8000037c:	0b813c03          	ld	s8,184(sp)
    80000380:	0c013c83          	ld	s9,192(sp)
    80000384:	0c813d03          	ld	s10,200(sp)
    80000388:	0d013d83          	ld	s11,208(sp)
    8000038c:	0d813e03          	ld	t3,216(sp)
    80000390:	0e013e83          	ld	t4,224(sp)
    80000394:	0e813f03          	ld	t5,232(sp)
    80000398:	0f013f83          	ld	t6,240(sp)
    8000039c:	10010113          	addi	sp,sp,256
    800003a0:	30200073          	mret

00000000800003a4 <xPortStartScheduler>:
    800003a4:	00022297          	auipc	t0,0x22
    800003a8:	bdc28293          	addi	t0,t0,-1060 # 80021f80 <xStartContext>
    800003ac:	0012b023          	sd	ra,0(t0)
    800003b0:	0022b423          	sd	sp,8(t0)
    800003b4:	0032b823          	sd	gp,16(t0)
    800003b8:	0042bc23          	sd	tp,24(t0)
    800003bc:	0252b023          	sd	t0,32(t0)
    800003c0:	0262b423          	sd	t1,40(t0)
    800003c4:	0272b823          	sd	t2,48(t0)
    800003c8:	0282bc23          	sd	s0,56(t0)
    800003cc:	0492b023          	sd	s1,64(t0)
    800003d0:	04a2b423          	sd	a0,72(t0)
    800003d4:	04b2b823          	sd	a1,80(t0)
    800003d8:	04c2bc23          	sd	a2,88(t0)
    800003dc:	06d2b023          	sd	a3,96(t0)
    800003e0:	06e2b423          	sd	a4,104(t0)
    800003e4:	06f2b823          	sd	a5,112(t0)
    800003e8:	0702bc23          	sd	a6,120(t0)
    800003ec:	0912b023          	sd	a7,128(t0)
    800003f0:	0922b423          	sd	s2,136(t0)
    800003f4:	0932b823          	sd	s3,144(t0)
    800003f8:	0942bc23          	sd	s4,152(t0)
    800003fc:	0b52b023          	sd	s5,160(t0)
    80000400:	0b62b423          	sd	s6,168(t0)
    80000404:	0b72b823          	sd	s7,176(t0)
    80000408:	0b82bc23          	sd	s8,184(t0)
    8000040c:	0d92b023          	sd	s9,192(t0)
    80000410:	0da2b423          	sd	s10,200(t0)
    80000414:	0db2b823          	sd	s11,208(t0)
    80000418:	0dc2bc23          	sd	t3,216(t0)
    8000041c:	0fd2b023          	sd	t4,224(t0)
    80000420:	0fe2b423          	sd	t5,232(t0)
    80000424:	0ff2b823          	sd	t6,240(t0)
    80000428:	2b0000ef          	jal	ra,800006d8 <vPortSetupTimer>
    8000042c:	00022117          	auipc	sp,0x22
    80000430:	99413103          	ld	sp,-1644(sp) # 80021dc0 <pxCurrentTCB>
    80000434:	00013103          	ld	sp,0(sp)
    80000438:	0f813283          	ld	t0,248(sp)
    8000043c:	34129073          	csrw	mepc,t0
    80000440:	000022b7          	lui	t0,0x2
    80000444:	8802829b          	addiw	t0,t0,-1920
    80000448:	3002a073          	csrs	mstatus,t0
    8000044c:	00013083          	ld	ra,0(sp)
    80000450:	01813203          	ld	tp,24(sp)
    80000454:	02013283          	ld	t0,32(sp)
    80000458:	02813303          	ld	t1,40(sp)
    8000045c:	03013383          	ld	t2,48(sp)
    80000460:	03813403          	ld	s0,56(sp)
    80000464:	04013483          	ld	s1,64(sp)
    80000468:	04813503          	ld	a0,72(sp)
    8000046c:	05013583          	ld	a1,80(sp)
    80000470:	05813603          	ld	a2,88(sp)
    80000474:	06013683          	ld	a3,96(sp)
    80000478:	06813703          	ld	a4,104(sp)
    8000047c:	07013783          	ld	a5,112(sp)
    80000480:	07813803          	ld	a6,120(sp)
    80000484:	08013883          	ld	a7,128(sp)
    80000488:	08813903          	ld	s2,136(sp)
    8000048c:	09013983          	ld	s3,144(sp)
    80000490:	09813a03          	ld	s4,152(sp)
    80000494:	0a013a83          	ld	s5,160(sp)
    80000498:	0a813b03          	ld	s6,168(sp)
    8000049c:	0b013b83          	ld	s7,176(sp)
    800004a0:	0b813c03          	ld	s8,184(sp)
    800004a4:	0c013c83          	ld	s9,192(sp)
    800004a8:	0c813d03          	ld	s10,200(sp)
    800004ac:	0d013d83          	ld	s11,208(sp)
    800004b0:	0d813e03          	ld	t3,216(sp)
    800004b4:	0e013e83          	ld	t4,224(sp)
    800004b8:	0e813f03          	ld	t5,232(sp)
    800004bc:	0f013f83          	ld	t6,240(sp)
    800004c0:	10010113          	addi	sp,sp,256
    800004c4:	30200073          	mret

00000000800004c8 <vPortEndScheduler>:
    800004c8:	00022297          	auipc	t0,0x22
    800004cc:	ab828293          	addi	t0,t0,-1352 # 80021f80 <xStartContext>
    800004d0:	0002b083          	ld	ra,0(t0)
    800004d4:	0082b103          	ld	sp,8(t0)
    800004d8:	0102b183          	ld	gp,16(t0)
    800004dc:	0182b203          	ld	tp,24(t0)
    800004e0:	0202b283          	ld	t0,32(t0)
    800004e4:	0282b303          	ld	t1,40(t0)
    800004e8:	0302b383          	ld	t2,48(t0)
    800004ec:	0382b403          	ld	s0,56(t0)
    800004f0:	0402b483          	ld	s1,64(t0)
    800004f4:	0482b503          	ld	a0,72(t0)
    800004f8:	0502b583          	ld	a1,80(t0)
    800004fc:	0582b603          	ld	a2,88(t0)
    80000500:	0602b683          	ld	a3,96(t0)
    80000504:	0682b703          	ld	a4,104(t0)
    80000508:	0702b783          	ld	a5,112(t0)
    8000050c:	0782b803          	ld	a6,120(t0)
    80000510:	0802b883          	ld	a7,128(t0)
    80000514:	0882b903          	ld	s2,136(t0)
    80000518:	0902b983          	ld	s3,144(t0)
    8000051c:	0982ba03          	ld	s4,152(t0)
    80000520:	0a02ba83          	ld	s5,160(t0)
    80000524:	0a82bb03          	ld	s6,168(t0)
    80000528:	0b02bb83          	ld	s7,176(t0)
    8000052c:	0b82bc03          	ld	s8,184(t0)
    80000530:	0c02bc83          	ld	s9,192(t0)
    80000534:	0c82bd03          	ld	s10,200(t0)
    80000538:	0d02bd83          	ld	s11,208(t0)
    8000053c:	0d82be03          	ld	t3,216(t0)
    80000540:	0e02be83          	ld	t4,224(t0)
    80000544:	1382bf03          	ld	t5,312(t0)
    80000548:	0f02bf83          	ld	t6,240(t0)
    8000054c:	00008067          	ret

0000000080000550 <vPortYield>:
    80000550:	30047073          	csrci	mstatus,8
    80000554:	f0010113          	addi	sp,sp,-256
    80000558:	00113023          	sd	ra,0(sp)
    8000055c:	00213423          	sd	sp,8(sp)
    80000560:	00313823          	sd	gp,16(sp)
    80000564:	00413c23          	sd	tp,24(sp)
    80000568:	02513023          	sd	t0,32(sp)
    8000056c:	02613423          	sd	t1,40(sp)
    80000570:	02713823          	sd	t2,48(sp)
    80000574:	02813c23          	sd	s0,56(sp)
    80000578:	04913023          	sd	s1,64(sp)
    8000057c:	04a13423          	sd	a0,72(sp)
    80000580:	04b13823          	sd	a1,80(sp)
    80000584:	04c13c23          	sd	a2,88(sp)
    80000588:	06d13023          	sd	a3,96(sp)
    8000058c:	06e13423          	sd	a4,104(sp)
    80000590:	06f13823          	sd	a5,112(sp)
    80000594:	07013c23          	sd	a6,120(sp)
    80000598:	09113023          	sd	a7,128(sp)
    8000059c:	09213423          	sd	s2,136(sp)
    800005a0:	09313823          	sd	s3,144(sp)
    800005a4:	09413c23          	sd	s4,152(sp)
    800005a8:	0b513023          	sd	s5,160(sp)
    800005ac:	0b613423          	sd	s6,168(sp)
    800005b0:	0b713823          	sd	s7,176(sp)
    800005b4:	0b813c23          	sd	s8,184(sp)
    800005b8:	0d913023          	sd	s9,192(sp)
    800005bc:	0da13423          	sd	s10,200(sp)
    800005c0:	0db13823          	sd	s11,208(sp)
    800005c4:	0dc13c23          	sd	t3,216(sp)
    800005c8:	0fd13023          	sd	t4,224(sp)
    800005cc:	0fe13423          	sd	t5,232(sp)
    800005d0:	0ff13823          	sd	t6,240(sp)
    800005d4:	00021297          	auipc	t0,0x21
    800005d8:	7ec2b283          	ld	t0,2028(t0) # 80021dc0 <pxCurrentTCB>
    800005dc:	0022b023          	sd	sp,0(t0)
    800005e0:	0e113c23          	sd	ra,248(sp)
    800005e4:	731020ef          	jal	ra,80003514 <vTaskSwitchContext>
    800005e8:	00021117          	auipc	sp,0x21
    800005ec:	7d813103          	ld	sp,2008(sp) # 80021dc0 <pxCurrentTCB>
    800005f0:	00013103          	ld	sp,0(sp)
    800005f4:	0f813283          	ld	t0,248(sp)
    800005f8:	34129073          	csrw	mepc,t0
    800005fc:	000022b7          	lui	t0,0x2
    80000600:	8802829b          	addiw	t0,t0,-1920
    80000604:	3002a073          	csrs	mstatus,t0
    80000608:	00013083          	ld	ra,0(sp)
    8000060c:	01813203          	ld	tp,24(sp)
    80000610:	02013283          	ld	t0,32(sp)
    80000614:	02813303          	ld	t1,40(sp)
    80000618:	03013383          	ld	t2,48(sp)
    8000061c:	03813403          	ld	s0,56(sp)
    80000620:	04013483          	ld	s1,64(sp)
    80000624:	04813503          	ld	a0,72(sp)
    80000628:	05013583          	ld	a1,80(sp)
    8000062c:	05813603          	ld	a2,88(sp)
    80000630:	06013683          	ld	a3,96(sp)
    80000634:	06813703          	ld	a4,104(sp)
    80000638:	07013783          	ld	a5,112(sp)
    8000063c:	07813803          	ld	a6,120(sp)
    80000640:	08013883          	ld	a7,128(sp)
    80000644:	08813903          	ld	s2,136(sp)
    80000648:	09013983          	ld	s3,144(sp)
    8000064c:	09813a03          	ld	s4,152(sp)
    80000650:	0a013a83          	ld	s5,160(sp)
    80000654:	0a813b03          	ld	s6,168(sp)
    80000658:	0b013b83          	ld	s7,176(sp)
    8000065c:	0b813c03          	ld	s8,184(sp)
    80000660:	0c013c83          	ld	s9,192(sp)
    80000664:	0c813d03          	ld	s10,200(sp)
    80000668:	0d013d83          	ld	s11,208(sp)
    8000066c:	0d813e03          	ld	t3,216(sp)
    80000670:	0e013e83          	ld	t4,224(sp)
    80000674:	0e813f03          	ld	t5,232(sp)
    80000678:	0f013f83          	ld	t6,240(sp)
    8000067c:	10010113          	addi	sp,sp,256
    80000680:	30200073          	mret

0000000080000684 <prvSetNextTimerInterrupt>:
    80000684:	00022797          	auipc	a5,0x22
    80000688:	87c78793          	addi	a5,a5,-1924 # 80021f00 <mtime>
    8000068c:	0007b783          	ld	a5,0(a5)
    80000690:	04078063          	beqz	a5,800006d0 <prvSetNextTimerInterrupt+0x4c>
    80000694:	00022797          	auipc	a5,0x22
    80000698:	87478793          	addi	a5,a5,-1932 # 80021f08 <timecmp>
    8000069c:	0007b783          	ld	a5,0(a5)
    800006a0:	02078863          	beqz	a5,800006d0 <prvSetNextTimerInterrupt+0x4c>
    800006a4:	00022797          	auipc	a5,0x22
    800006a8:	85c78793          	addi	a5,a5,-1956 # 80021f00 <mtime>
    800006ac:	0007b783          	ld	a5,0(a5)
    800006b0:	0007b683          	ld	a3,0(a5)
    800006b4:	00022797          	auipc	a5,0x22
    800006b8:	85478793          	addi	a5,a5,-1964 # 80021f08 <timecmp>
    800006bc:	0007b783          	ld	a5,0(a5)
    800006c0:	0000c737          	lui	a4,0xc
    800006c4:	35070713          	addi	a4,a4,848 # c350 <_HEAP_SIZE+0xb350>
    800006c8:	00e68733          	add	a4,a3,a4
    800006cc:	00e7b023          	sd	a4,0(a5)
    800006d0:	00000013          	nop
    800006d4:	00008067          	ret

00000000800006d8 <vPortSetupTimer>:
    800006d8:	ff010113          	addi	sp,sp,-16
    800006dc:	00113423          	sd	ra,8(sp)
    800006e0:	fa5ff0ef          	jal	ra,80000684 <prvSetNextTimerInterrupt>
    800006e4:	08000793          	li	a5,128
    800006e8:	3047a073          	csrs	mie,a5
    800006ec:	00000013          	nop
    800006f0:	00813083          	ld	ra,8(sp)
    800006f4:	01010113          	addi	sp,sp,16
    800006f8:	00008067          	ret

00000000800006fc <prvTaskExitError>:
    800006fc:	00021797          	auipc	a5,0x21
    80000700:	7fc78793          	addi	a5,a5,2044 # 80021ef8 <uxCriticalNesting>
    80000704:	0007b703          	ld	a4,0(a5)
    80000708:	fff00793          	li	a5,-1
    8000070c:	00f70663          	beq	a4,a5,80000718 <prvTaskExitError+0x1c>
    80000710:	30047073          	csrci	mstatus,8
    80000714:	0000006f          	j	80000714 <prvTaskExitError+0x18>
    80000718:	30047073          	csrci	mstatus,8
    8000071c:	0000006f          	j	8000071c <prvTaskExitError+0x20>

0000000080000720 <vPortClearInterruptMask>:
    80000720:	ff010113          	addi	sp,sp,-16
    80000724:	00050793          	mv	a5,a0
    80000728:	00f12623          	sw	a5,12(sp)
    8000072c:	00c12783          	lw	a5,12(sp)
    80000730:	30479073          	csrw	mie,a5
    80000734:	00000013          	nop
    80000738:	01010113          	addi	sp,sp,16
    8000073c:	00008067          	ret

0000000080000740 <vPortSetInterruptMask>:
    80000740:	ff010113          	addi	sp,sp,-16
    80000744:	304027f3          	csrr	a5,mie
    80000748:	00f12623          	sw	a5,12(sp)
    8000074c:	3043f073          	csrci	mie,7
    80000750:	00c12783          	lw	a5,12(sp)
    80000754:	00078513          	mv	a0,a5
    80000758:	01010113          	addi	sp,sp,16
    8000075c:	00008067          	ret

0000000080000760 <pxPortInitialiseStack>:
    80000760:	fe010113          	addi	sp,sp,-32
    80000764:	00a13c23          	sd	a0,24(sp)
    80000768:	00b13823          	sd	a1,16(sp)
    8000076c:	00c13423          	sd	a2,8(sp)
    80000770:	01813783          	ld	a5,24(sp)
    80000774:	ff878793          	addi	a5,a5,-8
    80000778:	00f13c23          	sd	a5,24(sp)
    8000077c:	01013703          	ld	a4,16(sp)
    80000780:	01813783          	ld	a5,24(sp)
    80000784:	00e7b023          	sd	a4,0(a5)
    80000788:	01813783          	ld	a5,24(sp)
    8000078c:	f5078793          	addi	a5,a5,-176
    80000790:	00f13c23          	sd	a5,24(sp)
    80000794:	00813703          	ld	a4,8(sp)
    80000798:	01813783          	ld	a5,24(sp)
    8000079c:	00e7b023          	sd	a4,0(a5)
    800007a0:	01813783          	ld	a5,24(sp)
    800007a4:	fd078793          	addi	a5,a5,-48
    800007a8:	00f13c23          	sd	a5,24(sp)
    800007ac:	00018793          	mv	a5,gp
    800007b0:	00078713          	mv	a4,a5
    800007b4:	01813783          	ld	a5,24(sp)
    800007b8:	00e7b023          	sd	a4,0(a5)
    800007bc:	01813783          	ld	a5,24(sp)
    800007c0:	fe878793          	addi	a5,a5,-24
    800007c4:	00f13c23          	sd	a5,24(sp)
    800007c8:	00000717          	auipc	a4,0x0
    800007cc:	f3470713          	addi	a4,a4,-204 # 800006fc <prvTaskExitError>
    800007d0:	01813783          	ld	a5,24(sp)
    800007d4:	00e7b023          	sd	a4,0(a5)
    800007d8:	01813783          	ld	a5,24(sp)
    800007dc:	00078513          	mv	a0,a5
    800007e0:	02010113          	addi	sp,sp,32
    800007e4:	00008067          	ret

00000000800007e8 <vPortSysTickHandler>:
    800007e8:	ff010113          	addi	sp,sp,-16
    800007ec:	00113423          	sd	ra,8(sp)
    800007f0:	e95ff0ef          	jal	ra,80000684 <prvSetNextTimerInterrupt>
    800007f4:	255020ef          	jal	ra,80003248 <xTaskIncrementTick>
    800007f8:	00050793          	mv	a5,a0
    800007fc:	00078463          	beqz	a5,80000804 <vPortSysTickHandler+0x1c>
    80000800:	515020ef          	jal	ra,80003514 <vTaskSwitchContext>
    80000804:	00000013          	nop
    80000808:	00813083          	ld	ra,8(sp)
    8000080c:	01010113          	addi	sp,sp,16
    80000810:	00008067          	ret

0000000080000814 <vListInitialise>:
    80000814:	ff010113          	addi	sp,sp,-16
    80000818:	00a13423          	sd	a0,8(sp)
    8000081c:	00813783          	ld	a5,8(sp)
    80000820:	01078713          	addi	a4,a5,16
    80000824:	00813783          	ld	a5,8(sp)
    80000828:	00e7b423          	sd	a4,8(a5)
    8000082c:	00813783          	ld	a5,8(sp)
    80000830:	fff00713          	li	a4,-1
    80000834:	00e7a823          	sw	a4,16(a5)
    80000838:	00813783          	ld	a5,8(sp)
    8000083c:	01078713          	addi	a4,a5,16
    80000840:	00813783          	ld	a5,8(sp)
    80000844:	00e7bc23          	sd	a4,24(a5)
    80000848:	00813783          	ld	a5,8(sp)
    8000084c:	01078713          	addi	a4,a5,16
    80000850:	00813783          	ld	a5,8(sp)
    80000854:	02e7b023          	sd	a4,32(a5)
    80000858:	00813783          	ld	a5,8(sp)
    8000085c:	0007b023          	sd	zero,0(a5)
    80000860:	00000013          	nop
    80000864:	01010113          	addi	sp,sp,16
    80000868:	00008067          	ret

000000008000086c <vListInitialiseItem>:
    8000086c:	ff010113          	addi	sp,sp,-16
    80000870:	00a13423          	sd	a0,8(sp)
    80000874:	00813783          	ld	a5,8(sp)
    80000878:	0207b023          	sd	zero,32(a5)
    8000087c:	00000013          	nop
    80000880:	01010113          	addi	sp,sp,16
    80000884:	00008067          	ret

0000000080000888 <vListInsertEnd>:
    80000888:	fe010113          	addi	sp,sp,-32
    8000088c:	00a13423          	sd	a0,8(sp)
    80000890:	00b13023          	sd	a1,0(sp)
    80000894:	00813783          	ld	a5,8(sp)
    80000898:	0087b783          	ld	a5,8(a5)
    8000089c:	00f13c23          	sd	a5,24(sp)
    800008a0:	00013783          	ld	a5,0(sp)
    800008a4:	01813703          	ld	a4,24(sp)
    800008a8:	00e7b423          	sd	a4,8(a5)
    800008ac:	01813783          	ld	a5,24(sp)
    800008b0:	0107b703          	ld	a4,16(a5)
    800008b4:	00013783          	ld	a5,0(sp)
    800008b8:	00e7b823          	sd	a4,16(a5)
    800008bc:	01813783          	ld	a5,24(sp)
    800008c0:	0107b783          	ld	a5,16(a5)
    800008c4:	00013703          	ld	a4,0(sp)
    800008c8:	00e7b423          	sd	a4,8(a5)
    800008cc:	01813783          	ld	a5,24(sp)
    800008d0:	00013703          	ld	a4,0(sp)
    800008d4:	00e7b823          	sd	a4,16(a5)
    800008d8:	00013783          	ld	a5,0(sp)
    800008dc:	00813703          	ld	a4,8(sp)
    800008e0:	02e7b023          	sd	a4,32(a5)
    800008e4:	00813783          	ld	a5,8(sp)
    800008e8:	0007b783          	ld	a5,0(a5)
    800008ec:	00178713          	addi	a4,a5,1
    800008f0:	00813783          	ld	a5,8(sp)
    800008f4:	00e7b023          	sd	a4,0(a5)
    800008f8:	00000013          	nop
    800008fc:	02010113          	addi	sp,sp,32
    80000900:	00008067          	ret

0000000080000904 <vListInsert>:
    80000904:	fe010113          	addi	sp,sp,-32
    80000908:	00a13423          	sd	a0,8(sp)
    8000090c:	00b13023          	sd	a1,0(sp)
    80000910:	00013783          	ld	a5,0(sp)
    80000914:	0007a783          	lw	a5,0(a5)
    80000918:	00f12a23          	sw	a5,20(sp)
    8000091c:	01412783          	lw	a5,20(sp)
    80000920:	0007871b          	sext.w	a4,a5
    80000924:	fff00793          	li	a5,-1
    80000928:	00f71a63          	bne	a4,a5,8000093c <vListInsert+0x38>
    8000092c:	00813783          	ld	a5,8(sp)
    80000930:	0207b783          	ld	a5,32(a5)
    80000934:	00f13c23          	sd	a5,24(sp)
    80000938:	0380006f          	j	80000970 <vListInsert+0x6c>
    8000093c:	00813783          	ld	a5,8(sp)
    80000940:	01078793          	addi	a5,a5,16
    80000944:	00f13c23          	sd	a5,24(sp)
    80000948:	0100006f          	j	80000958 <vListInsert+0x54>
    8000094c:	01813783          	ld	a5,24(sp)
    80000950:	0087b783          	ld	a5,8(a5)
    80000954:	00f13c23          	sd	a5,24(sp)
    80000958:	01813783          	ld	a5,24(sp)
    8000095c:	0087b783          	ld	a5,8(a5)
    80000960:	0007a703          	lw	a4,0(a5)
    80000964:	01412783          	lw	a5,20(sp)
    80000968:	0007879b          	sext.w	a5,a5
    8000096c:	fee7f0e3          	bgeu	a5,a4,8000094c <vListInsert+0x48>
    80000970:	01813783          	ld	a5,24(sp)
    80000974:	0087b703          	ld	a4,8(a5)
    80000978:	00013783          	ld	a5,0(sp)
    8000097c:	00e7b423          	sd	a4,8(a5)
    80000980:	00013783          	ld	a5,0(sp)
    80000984:	0087b783          	ld	a5,8(a5)
    80000988:	00013703          	ld	a4,0(sp)
    8000098c:	00e7b823          	sd	a4,16(a5)
    80000990:	00013783          	ld	a5,0(sp)
    80000994:	01813703          	ld	a4,24(sp)
    80000998:	00e7b823          	sd	a4,16(a5)
    8000099c:	01813783          	ld	a5,24(sp)
    800009a0:	00013703          	ld	a4,0(sp)
    800009a4:	00e7b423          	sd	a4,8(a5)
    800009a8:	00013783          	ld	a5,0(sp)
    800009ac:	00813703          	ld	a4,8(sp)
    800009b0:	02e7b023          	sd	a4,32(a5)
    800009b4:	00813783          	ld	a5,8(sp)
    800009b8:	0007b783          	ld	a5,0(a5)
    800009bc:	00178713          	addi	a4,a5,1
    800009c0:	00813783          	ld	a5,8(sp)
    800009c4:	00e7b023          	sd	a4,0(a5)
    800009c8:	00000013          	nop
    800009cc:	02010113          	addi	sp,sp,32
    800009d0:	00008067          	ret

00000000800009d4 <uxListRemove>:
    800009d4:	fe010113          	addi	sp,sp,-32
    800009d8:	00a13423          	sd	a0,8(sp)
    800009dc:	00813783          	ld	a5,8(sp)
    800009e0:	0207b783          	ld	a5,32(a5)
    800009e4:	00f13c23          	sd	a5,24(sp)
    800009e8:	00813783          	ld	a5,8(sp)
    800009ec:	0087b783          	ld	a5,8(a5)
    800009f0:	00813703          	ld	a4,8(sp)
    800009f4:	01073703          	ld	a4,16(a4)
    800009f8:	00e7b823          	sd	a4,16(a5)
    800009fc:	00813783          	ld	a5,8(sp)
    80000a00:	0107b783          	ld	a5,16(a5)
    80000a04:	00813703          	ld	a4,8(sp)
    80000a08:	00873703          	ld	a4,8(a4)
    80000a0c:	00e7b423          	sd	a4,8(a5)
    80000a10:	01813783          	ld	a5,24(sp)
    80000a14:	0087b783          	ld	a5,8(a5)
    80000a18:	00813703          	ld	a4,8(sp)
    80000a1c:	00f71a63          	bne	a4,a5,80000a30 <uxListRemove+0x5c>
    80000a20:	00813783          	ld	a5,8(sp)
    80000a24:	0107b703          	ld	a4,16(a5)
    80000a28:	01813783          	ld	a5,24(sp)
    80000a2c:	00e7b423          	sd	a4,8(a5)
    80000a30:	00813783          	ld	a5,8(sp)
    80000a34:	0207b023          	sd	zero,32(a5)
    80000a38:	01813783          	ld	a5,24(sp)
    80000a3c:	0007b783          	ld	a5,0(a5)
    80000a40:	fff78713          	addi	a4,a5,-1
    80000a44:	01813783          	ld	a5,24(sp)
    80000a48:	00e7b023          	sd	a4,0(a5)
    80000a4c:	01813783          	ld	a5,24(sp)
    80000a50:	0007b783          	ld	a5,0(a5)
    80000a54:	00078513          	mv	a0,a5
    80000a58:	02010113          	addi	sp,sp,32
    80000a5c:	00008067          	ret

0000000080000a60 <xQueueGenericReset>:
    80000a60:	fd010113          	addi	sp,sp,-48
    80000a64:	02113423          	sd	ra,40(sp)
    80000a68:	00a13423          	sd	a0,8(sp)
    80000a6c:	00b13023          	sd	a1,0(sp)
    80000a70:	00813783          	ld	a5,8(sp)
    80000a74:	00f13c23          	sd	a5,24(sp)
    80000a78:	01813783          	ld	a5,24(sp)
    80000a7c:	00079663          	bnez	a5,80000a88 <xQueueGenericReset+0x28>
    80000a80:	30047073          	csrci	mstatus,8
    80000a84:	0000006f          	j	80000a84 <xQueueGenericReset+0x24>
    80000a88:	671030ef          	jal	ra,800048f8 <vTaskEnterCritical>
    80000a8c:	01813783          	ld	a5,24(sp)
    80000a90:	0007b703          	ld	a4,0(a5)
    80000a94:	01813783          	ld	a5,24(sp)
    80000a98:	0787b683          	ld	a3,120(a5)
    80000a9c:	01813783          	ld	a5,24(sp)
    80000aa0:	0807b783          	ld	a5,128(a5)
    80000aa4:	02f687b3          	mul	a5,a3,a5
    80000aa8:	00f70733          	add	a4,a4,a5
    80000aac:	01813783          	ld	a5,24(sp)
    80000ab0:	00e7b423          	sd	a4,8(a5)
    80000ab4:	01813783          	ld	a5,24(sp)
    80000ab8:	0607b823          	sd	zero,112(a5)
    80000abc:	01813783          	ld	a5,24(sp)
    80000ac0:	0007b703          	ld	a4,0(a5)
    80000ac4:	01813783          	ld	a5,24(sp)
    80000ac8:	00e7b823          	sd	a4,16(a5)
    80000acc:	01813783          	ld	a5,24(sp)
    80000ad0:	0007b703          	ld	a4,0(a5)
    80000ad4:	01813783          	ld	a5,24(sp)
    80000ad8:	0787b783          	ld	a5,120(a5)
    80000adc:	fff78693          	addi	a3,a5,-1
    80000ae0:	01813783          	ld	a5,24(sp)
    80000ae4:	0807b783          	ld	a5,128(a5)
    80000ae8:	02f687b3          	mul	a5,a3,a5
    80000aec:	00f70733          	add	a4,a4,a5
    80000af0:	01813783          	ld	a5,24(sp)
    80000af4:	00e7bc23          	sd	a4,24(a5)
    80000af8:	01813783          	ld	a5,24(sp)
    80000afc:	fff00713          	li	a4,-1
    80000b00:	08e7b423          	sd	a4,136(a5)
    80000b04:	01813783          	ld	a5,24(sp)
    80000b08:	fff00713          	li	a4,-1
    80000b0c:	08e7b823          	sd	a4,144(a5)
    80000b10:	00013783          	ld	a5,0(sp)
    80000b14:	02079a63          	bnez	a5,80000b48 <xQueueGenericReset+0xe8>
    80000b18:	01813783          	ld	a5,24(sp)
    80000b1c:	0207b783          	ld	a5,32(a5)
    80000b20:	04078463          	beqz	a5,80000b68 <xQueueGenericReset+0x108>
    80000b24:	01813783          	ld	a5,24(sp)
    80000b28:	02078793          	addi	a5,a5,32
    80000b2c:	00078513          	mv	a0,a5
    80000b30:	649020ef          	jal	ra,80003978 <xTaskRemoveFromEventList>
    80000b34:	00050713          	mv	a4,a0
    80000b38:	00100793          	li	a5,1
    80000b3c:	02f71663          	bne	a4,a5,80000b68 <xQueueGenericReset+0x108>
    80000b40:	a11ff0ef          	jal	ra,80000550 <vPortYield>
    80000b44:	0240006f          	j	80000b68 <xQueueGenericReset+0x108>
    80000b48:	01813783          	ld	a5,24(sp)
    80000b4c:	02078793          	addi	a5,a5,32
    80000b50:	00078513          	mv	a0,a5
    80000b54:	cc1ff0ef          	jal	ra,80000814 <vListInitialise>
    80000b58:	01813783          	ld	a5,24(sp)
    80000b5c:	04878793          	addi	a5,a5,72
    80000b60:	00078513          	mv	a0,a5
    80000b64:	cb1ff0ef          	jal	ra,80000814 <vListInitialise>
    80000b68:	5d1030ef          	jal	ra,80004938 <vTaskExitCritical>
    80000b6c:	00100793          	li	a5,1
    80000b70:	00078513          	mv	a0,a5
    80000b74:	02813083          	ld	ra,40(sp)
    80000b78:	03010113          	addi	sp,sp,48
    80000b7c:	00008067          	ret

0000000080000b80 <xQueueGenericCreate>:
    80000b80:	fb010113          	addi	sp,sp,-80
    80000b84:	04113423          	sd	ra,72(sp)
    80000b88:	00a13c23          	sd	a0,24(sp)
    80000b8c:	00b13823          	sd	a1,16(sp)
    80000b90:	00060793          	mv	a5,a2
    80000b94:	00f107a3          	sb	a5,15(sp)
    80000b98:	02013823          	sd	zero,48(sp)
    80000b9c:	01813783          	ld	a5,24(sp)
    80000ba0:	00079663          	bnez	a5,80000bac <xQueueGenericCreate+0x2c>
    80000ba4:	30047073          	csrci	mstatus,8
    80000ba8:	0000006f          	j	80000ba8 <xQueueGenericCreate+0x28>
    80000bac:	01013783          	ld	a5,16(sp)
    80000bb0:	00079663          	bnez	a5,80000bbc <xQueueGenericCreate+0x3c>
    80000bb4:	02013c23          	sd	zero,56(sp)
    80000bb8:	0180006f          	j	80000bd0 <xQueueGenericCreate+0x50>
    80000bbc:	01813703          	ld	a4,24(sp)
    80000bc0:	01013783          	ld	a5,16(sp)
    80000bc4:	02f707b3          	mul	a5,a4,a5
    80000bc8:	00178793          	addi	a5,a5,1
    80000bcc:	02f13c23          	sd	a5,56(sp)
    80000bd0:	03813783          	ld	a5,56(sp)
    80000bd4:	0a878793          	addi	a5,a5,168
    80000bd8:	00078513          	mv	a0,a5
    80000bdc:	5ed050ef          	jal	ra,800069c8 <pvPortMalloc>
    80000be0:	02a13423          	sd	a0,40(sp)
    80000be4:	02813783          	ld	a5,40(sp)
    80000be8:	06078263          	beqz	a5,80000c4c <xQueueGenericCreate+0xcc>
    80000bec:	01013783          	ld	a5,16(sp)
    80000bf0:	00079a63          	bnez	a5,80000c04 <xQueueGenericCreate+0x84>
    80000bf4:	02813783          	ld	a5,40(sp)
    80000bf8:	02813703          	ld	a4,40(sp)
    80000bfc:	00e7b023          	sd	a4,0(a5)
    80000c00:	0140006f          	j	80000c14 <xQueueGenericCreate+0x94>
    80000c04:	02813783          	ld	a5,40(sp)
    80000c08:	0a878713          	addi	a4,a5,168
    80000c0c:	02813783          	ld	a5,40(sp)
    80000c10:	00e7b023          	sd	a4,0(a5)
    80000c14:	02813783          	ld	a5,40(sp)
    80000c18:	01813703          	ld	a4,24(sp)
    80000c1c:	06e7bc23          	sd	a4,120(a5)
    80000c20:	02813783          	ld	a5,40(sp)
    80000c24:	01013703          	ld	a4,16(sp)
    80000c28:	08e7b023          	sd	a4,128(a5)
    80000c2c:	00100593          	li	a1,1
    80000c30:	02813503          	ld	a0,40(sp)
    80000c34:	e2dff0ef          	jal	ra,80000a60 <xQueueGenericReset>
    80000c38:	02813783          	ld	a5,40(sp)
    80000c3c:	00f14703          	lbu	a4,15(sp)
    80000c40:	0ae78023          	sb	a4,160(a5)
    80000c44:	02813783          	ld	a5,40(sp)
    80000c48:	02f13823          	sd	a5,48(sp)
    80000c4c:	03013783          	ld	a5,48(sp)
    80000c50:	00079663          	bnez	a5,80000c5c <xQueueGenericCreate+0xdc>
    80000c54:	30047073          	csrci	mstatus,8
    80000c58:	0000006f          	j	80000c58 <xQueueGenericCreate+0xd8>
    80000c5c:	03013783          	ld	a5,48(sp)
    80000c60:	00078513          	mv	a0,a5
    80000c64:	04813083          	ld	ra,72(sp)
    80000c68:	05010113          	addi	sp,sp,80
    80000c6c:	00008067          	ret

0000000080000c70 <xQueueCreateMutex>:
    80000c70:	fd010113          	addi	sp,sp,-48
    80000c74:	02113423          	sd	ra,40(sp)
    80000c78:	00050793          	mv	a5,a0
    80000c7c:	00f107a3          	sb	a5,15(sp)
    80000c80:	0a800513          	li	a0,168
    80000c84:	545050ef          	jal	ra,800069c8 <pvPortMalloc>
    80000c88:	00a13c23          	sd	a0,24(sp)
    80000c8c:	01813783          	ld	a5,24(sp)
    80000c90:	08078c63          	beqz	a5,80000d28 <xQueueCreateMutex+0xb8>
    80000c94:	01813783          	ld	a5,24(sp)
    80000c98:	0007b423          	sd	zero,8(a5)
    80000c9c:	01813783          	ld	a5,24(sp)
    80000ca0:	0007b023          	sd	zero,0(a5)
    80000ca4:	01813783          	ld	a5,24(sp)
    80000ca8:	0007b823          	sd	zero,16(a5)
    80000cac:	01813783          	ld	a5,24(sp)
    80000cb0:	0007bc23          	sd	zero,24(a5)
    80000cb4:	01813783          	ld	a5,24(sp)
    80000cb8:	0607b823          	sd	zero,112(a5)
    80000cbc:	01813783          	ld	a5,24(sp)
    80000cc0:	00100713          	li	a4,1
    80000cc4:	06e7bc23          	sd	a4,120(a5)
    80000cc8:	01813783          	ld	a5,24(sp)
    80000ccc:	0807b023          	sd	zero,128(a5)
    80000cd0:	01813783          	ld	a5,24(sp)
    80000cd4:	fff00713          	li	a4,-1
    80000cd8:	08e7b423          	sd	a4,136(a5)
    80000cdc:	01813783          	ld	a5,24(sp)
    80000ce0:	fff00713          	li	a4,-1
    80000ce4:	08e7b823          	sd	a4,144(a5)
    80000ce8:	01813783          	ld	a5,24(sp)
    80000cec:	00f14703          	lbu	a4,15(sp)
    80000cf0:	0ae78023          	sb	a4,160(a5)
    80000cf4:	01813783          	ld	a5,24(sp)
    80000cf8:	02078793          	addi	a5,a5,32
    80000cfc:	00078513          	mv	a0,a5
    80000d00:	b15ff0ef          	jal	ra,80000814 <vListInitialise>
    80000d04:	01813783          	ld	a5,24(sp)
    80000d08:	04878793          	addi	a5,a5,72
    80000d0c:	00078513          	mv	a0,a5
    80000d10:	b05ff0ef          	jal	ra,80000814 <vListInitialise>
    80000d14:	00000693          	li	a3,0
    80000d18:	00000613          	li	a2,0
    80000d1c:	00000593          	li	a1,0
    80000d20:	01813503          	ld	a0,24(sp)
    80000d24:	230000ef          	jal	ra,80000f54 <xQueueGenericSend>
    80000d28:	01813783          	ld	a5,24(sp)
    80000d2c:	00078513          	mv	a0,a5
    80000d30:	02813083          	ld	ra,40(sp)
    80000d34:	03010113          	addi	sp,sp,48
    80000d38:	00008067          	ret

0000000080000d3c <xQueueGetMutexHolder>:
    80000d3c:	fd010113          	addi	sp,sp,-48
    80000d40:	02113423          	sd	ra,40(sp)
    80000d44:	00a13423          	sd	a0,8(sp)
    80000d48:	3b1030ef          	jal	ra,800048f8 <vTaskEnterCritical>
    80000d4c:	00813783          	ld	a5,8(sp)
    80000d50:	0007b783          	ld	a5,0(a5)
    80000d54:	00079a63          	bnez	a5,80000d68 <xQueueGetMutexHolder+0x2c>
    80000d58:	00813783          	ld	a5,8(sp)
    80000d5c:	0087b783          	ld	a5,8(a5)
    80000d60:	00f13c23          	sd	a5,24(sp)
    80000d64:	0080006f          	j	80000d6c <xQueueGetMutexHolder+0x30>
    80000d68:	00013c23          	sd	zero,24(sp)
    80000d6c:	3cd030ef          	jal	ra,80004938 <vTaskExitCritical>
    80000d70:	01813783          	ld	a5,24(sp)
    80000d74:	00078513          	mv	a0,a5
    80000d78:	02813083          	ld	ra,40(sp)
    80000d7c:	03010113          	addi	sp,sp,48
    80000d80:	00008067          	ret

0000000080000d84 <xQueueGiveMutexRecursive>:
    80000d84:	fd010113          	addi	sp,sp,-48
    80000d88:	02113423          	sd	ra,40(sp)
    80000d8c:	02813023          	sd	s0,32(sp)
    80000d90:	00a13423          	sd	a0,8(sp)
    80000d94:	00813783          	ld	a5,8(sp)
    80000d98:	00f13823          	sd	a5,16(sp)
    80000d9c:	01013783          	ld	a5,16(sp)
    80000da0:	00079663          	bnez	a5,80000dac <xQueueGiveMutexRecursive+0x28>
    80000da4:	30047073          	csrci	mstatus,8
    80000da8:	0000006f          	j	80000da8 <xQueueGiveMutexRecursive+0x24>
    80000dac:	01013783          	ld	a5,16(sp)
    80000db0:	0087b403          	ld	s0,8(a5)
    80000db4:	025030ef          	jal	ra,800045d8 <xTaskGetCurrentTaskHandle>
    80000db8:	00050793          	mv	a5,a0
    80000dbc:	04f41263          	bne	s0,a5,80000e00 <xQueueGiveMutexRecursive+0x7c>
    80000dc0:	01013783          	ld	a5,16(sp)
    80000dc4:	0187b783          	ld	a5,24(a5)
    80000dc8:	fff78713          	addi	a4,a5,-1
    80000dcc:	01013783          	ld	a5,16(sp)
    80000dd0:	00e7bc23          	sd	a4,24(a5)
    80000dd4:	01013783          	ld	a5,16(sp)
    80000dd8:	0187b783          	ld	a5,24(a5)
    80000ddc:	00079c63          	bnez	a5,80000df4 <xQueueGiveMutexRecursive+0x70>
    80000de0:	00000693          	li	a3,0
    80000de4:	00000613          	li	a2,0
    80000de8:	00000593          	li	a1,0
    80000dec:	01013503          	ld	a0,16(sp)
    80000df0:	164000ef          	jal	ra,80000f54 <xQueueGenericSend>
    80000df4:	00100793          	li	a5,1
    80000df8:	00f13c23          	sd	a5,24(sp)
    80000dfc:	0080006f          	j	80000e04 <xQueueGiveMutexRecursive+0x80>
    80000e00:	00013c23          	sd	zero,24(sp)
    80000e04:	01813783          	ld	a5,24(sp)
    80000e08:	00078513          	mv	a0,a5
    80000e0c:	02813083          	ld	ra,40(sp)
    80000e10:	02013403          	ld	s0,32(sp)
    80000e14:	03010113          	addi	sp,sp,48
    80000e18:	00008067          	ret

0000000080000e1c <xQueueTakeMutexRecursive>:
    80000e1c:	fd010113          	addi	sp,sp,-48
    80000e20:	02113423          	sd	ra,40(sp)
    80000e24:	02813023          	sd	s0,32(sp)
    80000e28:	00a13423          	sd	a0,8(sp)
    80000e2c:	00058793          	mv	a5,a1
    80000e30:	00f12223          	sw	a5,4(sp)
    80000e34:	00813783          	ld	a5,8(sp)
    80000e38:	00f13823          	sd	a5,16(sp)
    80000e3c:	01013783          	ld	a5,16(sp)
    80000e40:	00079663          	bnez	a5,80000e4c <xQueueTakeMutexRecursive+0x30>
    80000e44:	30047073          	csrci	mstatus,8
    80000e48:	0000006f          	j	80000e48 <xQueueTakeMutexRecursive+0x2c>
    80000e4c:	01013783          	ld	a5,16(sp)
    80000e50:	0087b403          	ld	s0,8(a5)
    80000e54:	784030ef          	jal	ra,800045d8 <xTaskGetCurrentTaskHandle>
    80000e58:	00050793          	mv	a5,a0
    80000e5c:	02f41263          	bne	s0,a5,80000e80 <xQueueTakeMutexRecursive+0x64>
    80000e60:	01013783          	ld	a5,16(sp)
    80000e64:	0187b783          	ld	a5,24(a5)
    80000e68:	00178713          	addi	a4,a5,1
    80000e6c:	01013783          	ld	a5,16(sp)
    80000e70:	00e7bc23          	sd	a4,24(a5)
    80000e74:	00100793          	li	a5,1
    80000e78:	00f13c23          	sd	a5,24(sp)
    80000e7c:	0400006f          	j	80000ebc <xQueueTakeMutexRecursive+0xa0>
    80000e80:	00412783          	lw	a5,4(sp)
    80000e84:	00000693          	li	a3,0
    80000e88:	00078613          	mv	a2,a5
    80000e8c:	00000593          	li	a1,0
    80000e90:	01013503          	ld	a0,16(sp)
    80000e94:	598000ef          	jal	ra,8000142c <xQueueGenericReceive>
    80000e98:	00a13c23          	sd	a0,24(sp)
    80000e9c:	01813703          	ld	a4,24(sp)
    80000ea0:	00100793          	li	a5,1
    80000ea4:	00f71c63          	bne	a4,a5,80000ebc <xQueueTakeMutexRecursive+0xa0>
    80000ea8:	01013783          	ld	a5,16(sp)
    80000eac:	0187b783          	ld	a5,24(a5)
    80000eb0:	00178713          	addi	a4,a5,1
    80000eb4:	01013783          	ld	a5,16(sp)
    80000eb8:	00e7bc23          	sd	a4,24(a5)
    80000ebc:	01813783          	ld	a5,24(sp)
    80000ec0:	00078513          	mv	a0,a5
    80000ec4:	02813083          	ld	ra,40(sp)
    80000ec8:	02013403          	ld	s0,32(sp)
    80000ecc:	03010113          	addi	sp,sp,48
    80000ed0:	00008067          	ret

0000000080000ed4 <xQueueCreateCountingSemaphore>:
    80000ed4:	fd010113          	addi	sp,sp,-48
    80000ed8:	02113423          	sd	ra,40(sp)
    80000edc:	00a13423          	sd	a0,8(sp)
    80000ee0:	00b13023          	sd	a1,0(sp)
    80000ee4:	00813783          	ld	a5,8(sp)
    80000ee8:	00079663          	bnez	a5,80000ef4 <xQueueCreateCountingSemaphore+0x20>
    80000eec:	30047073          	csrci	mstatus,8
    80000ef0:	0000006f          	j	80000ef0 <xQueueCreateCountingSemaphore+0x1c>
    80000ef4:	00013703          	ld	a4,0(sp)
    80000ef8:	00813783          	ld	a5,8(sp)
    80000efc:	00e7f663          	bgeu	a5,a4,80000f08 <xQueueCreateCountingSemaphore+0x34>
    80000f00:	30047073          	csrci	mstatus,8
    80000f04:	0000006f          	j	80000f04 <xQueueCreateCountingSemaphore+0x30>
    80000f08:	00200613          	li	a2,2
    80000f0c:	00000593          	li	a1,0
    80000f10:	00813503          	ld	a0,8(sp)
    80000f14:	c6dff0ef          	jal	ra,80000b80 <xQueueGenericCreate>
    80000f18:	00a13c23          	sd	a0,24(sp)
    80000f1c:	01813783          	ld	a5,24(sp)
    80000f20:	00078863          	beqz	a5,80000f30 <xQueueCreateCountingSemaphore+0x5c>
    80000f24:	01813783          	ld	a5,24(sp)
    80000f28:	00013703          	ld	a4,0(sp)
    80000f2c:	06e7b823          	sd	a4,112(a5)
    80000f30:	01813783          	ld	a5,24(sp)
    80000f34:	00079663          	bnez	a5,80000f40 <xQueueCreateCountingSemaphore+0x6c>
    80000f38:	30047073          	csrci	mstatus,8
    80000f3c:	0000006f          	j	80000f3c <xQueueCreateCountingSemaphore+0x68>
    80000f40:	01813783          	ld	a5,24(sp)
    80000f44:	00078513          	mv	a0,a5
    80000f48:	02813083          	ld	ra,40(sp)
    80000f4c:	03010113          	addi	sp,sp,48
    80000f50:	00008067          	ret

0000000080000f54 <xQueueGenericSend>:
    80000f54:	fa010113          	addi	sp,sp,-96
    80000f58:	04113c23          	sd	ra,88(sp)
    80000f5c:	00a13c23          	sd	a0,24(sp)
    80000f60:	00b13823          	sd	a1,16(sp)
    80000f64:	00060793          	mv	a5,a2
    80000f68:	00d13023          	sd	a3,0(sp)
    80000f6c:	00f12623          	sw	a5,12(sp)
    80000f70:	04013423          	sd	zero,72(sp)
    80000f74:	01813783          	ld	a5,24(sp)
    80000f78:	04f13023          	sd	a5,64(sp)
    80000f7c:	04013783          	ld	a5,64(sp)
    80000f80:	00079663          	bnez	a5,80000f8c <xQueueGenericSend+0x38>
    80000f84:	30047073          	csrci	mstatus,8
    80000f88:	0000006f          	j	80000f88 <xQueueGenericSend+0x34>
    80000f8c:	01013783          	ld	a5,16(sp)
    80000f90:	00079863          	bnez	a5,80000fa0 <xQueueGenericSend+0x4c>
    80000f94:	04013783          	ld	a5,64(sp)
    80000f98:	0807b783          	ld	a5,128(a5)
    80000f9c:	00079663          	bnez	a5,80000fa8 <xQueueGenericSend+0x54>
    80000fa0:	00100793          	li	a5,1
    80000fa4:	0080006f          	j	80000fac <xQueueGenericSend+0x58>
    80000fa8:	00000793          	li	a5,0
    80000fac:	00079663          	bnez	a5,80000fb8 <xQueueGenericSend+0x64>
    80000fb0:	30047073          	csrci	mstatus,8
    80000fb4:	0000006f          	j	80000fb4 <xQueueGenericSend+0x60>
    80000fb8:	00013703          	ld	a4,0(sp)
    80000fbc:	00200793          	li	a5,2
    80000fc0:	00f71a63          	bne	a4,a5,80000fd4 <xQueueGenericSend+0x80>
    80000fc4:	04013783          	ld	a5,64(sp)
    80000fc8:	0787b703          	ld	a4,120(a5)
    80000fcc:	00100793          	li	a5,1
    80000fd0:	00f71663          	bne	a4,a5,80000fdc <xQueueGenericSend+0x88>
    80000fd4:	00100793          	li	a5,1
    80000fd8:	0080006f          	j	80000fe0 <xQueueGenericSend+0x8c>
    80000fdc:	00000793          	li	a5,0
    80000fe0:	00079663          	bnez	a5,80000fec <xQueueGenericSend+0x98>
    80000fe4:	30047073          	csrci	mstatus,8
    80000fe8:	0000006f          	j	80000fe8 <xQueueGenericSend+0x94>
    80000fec:	610030ef          	jal	ra,800045fc <xTaskGetSchedulerState>
    80000ff0:	00050793          	mv	a5,a0
    80000ff4:	00079663          	bnez	a5,80001000 <xQueueGenericSend+0xac>
    80000ff8:	00c12783          	lw	a5,12(sp)
    80000ffc:	00079663          	bnez	a5,80001008 <xQueueGenericSend+0xb4>
    80001000:	00100793          	li	a5,1
    80001004:	0080006f          	j	8000100c <xQueueGenericSend+0xb8>
    80001008:	00000793          	li	a5,0
    8000100c:	00079663          	bnez	a5,80001018 <xQueueGenericSend+0xc4>
    80001010:	30047073          	csrci	mstatus,8
    80001014:	0000006f          	j	80001014 <xQueueGenericSend+0xc0>
    80001018:	0e1030ef          	jal	ra,800048f8 <vTaskEnterCritical>
    8000101c:	04013783          	ld	a5,64(sp)
    80001020:	0707b703          	ld	a4,112(a5)
    80001024:	04013783          	ld	a5,64(sp)
    80001028:	0787b783          	ld	a5,120(a5)
    8000102c:	00f76863          	bltu	a4,a5,8000103c <xQueueGenericSend+0xe8>
    80001030:	00013703          	ld	a4,0(sp)
    80001034:	00200793          	li	a5,2
    80001038:	06f71063          	bne	a4,a5,80001098 <xQueueGenericSend+0x144>
    8000103c:	00013603          	ld	a2,0(sp)
    80001040:	01013583          	ld	a1,16(sp)
    80001044:	04013503          	ld	a0,64(sp)
    80001048:	1d5000ef          	jal	ra,80001a1c <prvCopyDataToQueue>
    8000104c:	02a13c23          	sd	a0,56(sp)
    80001050:	04013783          	ld	a5,64(sp)
    80001054:	0487b783          	ld	a5,72(a5)
    80001058:	02078463          	beqz	a5,80001080 <xQueueGenericSend+0x12c>
    8000105c:	04013783          	ld	a5,64(sp)
    80001060:	04878793          	addi	a5,a5,72
    80001064:	00078513          	mv	a0,a5
    80001068:	111020ef          	jal	ra,80003978 <xTaskRemoveFromEventList>
    8000106c:	00050713          	mv	a4,a0
    80001070:	00100793          	li	a5,1
    80001074:	00f71c63          	bne	a4,a5,8000108c <xQueueGenericSend+0x138>
    80001078:	cd8ff0ef          	jal	ra,80000550 <vPortYield>
    8000107c:	0100006f          	j	8000108c <xQueueGenericSend+0x138>
    80001080:	03813783          	ld	a5,56(sp)
    80001084:	00078463          	beqz	a5,8000108c <xQueueGenericSend+0x138>
    80001088:	cc8ff0ef          	jal	ra,80000550 <vPortYield>
    8000108c:	0ad030ef          	jal	ra,80004938 <vTaskExitCritical>
    80001090:	00100793          	li	a5,1
    80001094:	0f40006f          	j	80001188 <xQueueGenericSend+0x234>
    80001098:	00c12783          	lw	a5,12(sp)
    8000109c:	00079863          	bnez	a5,800010ac <xQueueGenericSend+0x158>
    800010a0:	099030ef          	jal	ra,80004938 <vTaskExitCritical>
    800010a4:	00000793          	li	a5,0
    800010a8:	0e00006f          	j	80001188 <xQueueGenericSend+0x234>
    800010ac:	04813783          	ld	a5,72(sp)
    800010b0:	00079c63          	bnez	a5,800010c8 <xQueueGenericSend+0x174>
    800010b4:	02810793          	addi	a5,sp,40
    800010b8:	00078513          	mv	a0,a5
    800010bc:	315020ef          	jal	ra,80003bd0 <vTaskSetTimeOutState>
    800010c0:	00100793          	li	a5,1
    800010c4:	04f13423          	sd	a5,72(sp)
    800010c8:	071030ef          	jal	ra,80004938 <vTaskExitCritical>
    800010cc:	505010ef          	jal	ra,80002dd0 <vTaskSuspendAll>
    800010d0:	029030ef          	jal	ra,800048f8 <vTaskEnterCritical>
    800010d4:	04013783          	ld	a5,64(sp)
    800010d8:	0887b703          	ld	a4,136(a5)
    800010dc:	fff00793          	li	a5,-1
    800010e0:	00f71663          	bne	a4,a5,800010ec <xQueueGenericSend+0x198>
    800010e4:	04013783          	ld	a5,64(sp)
    800010e8:	0807b423          	sd	zero,136(a5)
    800010ec:	04013783          	ld	a5,64(sp)
    800010f0:	0907b703          	ld	a4,144(a5)
    800010f4:	fff00793          	li	a5,-1
    800010f8:	00f71663          	bne	a4,a5,80001104 <xQueueGenericSend+0x1b0>
    800010fc:	04013783          	ld	a5,64(sp)
    80001100:	0807b823          	sd	zero,144(a5)
    80001104:	035030ef          	jal	ra,80004938 <vTaskExitCritical>
    80001108:	00c10713          	addi	a4,sp,12
    8000110c:	02810793          	addi	a5,sp,40
    80001110:	00070593          	mv	a1,a4
    80001114:	00078513          	mv	a0,a5
    80001118:	309020ef          	jal	ra,80003c20 <xTaskCheckForTimeOut>
    8000111c:	00050793          	mv	a5,a0
    80001120:	04079c63          	bnez	a5,80001178 <xQueueGenericSend+0x224>
    80001124:	04013503          	ld	a0,64(sp)
    80001128:	479000ef          	jal	ra,80001da0 <prvIsQueueFull>
    8000112c:	00050793          	mv	a5,a0
    80001130:	02078c63          	beqz	a5,80001168 <xQueueGenericSend+0x214>
    80001134:	04013783          	ld	a5,64(sp)
    80001138:	02078793          	addi	a5,a5,32
    8000113c:	00c12703          	lw	a4,12(sp)
    80001140:	00070593          	mv	a1,a4
    80001144:	00078513          	mv	a0,a5
    80001148:	5a0020ef          	jal	ra,800036e8 <vTaskPlaceOnEventList>
    8000114c:	04013503          	ld	a0,64(sp)
    80001150:	2dd000ef          	jal	ra,80001c2c <prvUnlockQueue>
    80001154:	4a1010ef          	jal	ra,80002df4 <xTaskResumeAll>
    80001158:	00050793          	mv	a5,a0
    8000115c:	ea079ee3          	bnez	a5,80001018 <xQueueGenericSend+0xc4>
    80001160:	bf0ff0ef          	jal	ra,80000550 <vPortYield>
    80001164:	eb5ff06f          	j	80001018 <xQueueGenericSend+0xc4>
    80001168:	04013503          	ld	a0,64(sp)
    8000116c:	2c1000ef          	jal	ra,80001c2c <prvUnlockQueue>
    80001170:	485010ef          	jal	ra,80002df4 <xTaskResumeAll>
    80001174:	ea5ff06f          	j	80001018 <xQueueGenericSend+0xc4>
    80001178:	04013503          	ld	a0,64(sp)
    8000117c:	2b1000ef          	jal	ra,80001c2c <prvUnlockQueue>
    80001180:	475010ef          	jal	ra,80002df4 <xTaskResumeAll>
    80001184:	00000793          	li	a5,0
    80001188:	00078513          	mv	a0,a5
    8000118c:	05813083          	ld	ra,88(sp)
    80001190:	06010113          	addi	sp,sp,96
    80001194:	00008067          	ret

0000000080001198 <xQueueGenericSendFromISR>:
    80001198:	fb010113          	addi	sp,sp,-80
    8000119c:	04113423          	sd	ra,72(sp)
    800011a0:	00a13c23          	sd	a0,24(sp)
    800011a4:	00b13823          	sd	a1,16(sp)
    800011a8:	00c13423          	sd	a2,8(sp)
    800011ac:	00d13023          	sd	a3,0(sp)
    800011b0:	01813783          	ld	a5,24(sp)
    800011b4:	02f13823          	sd	a5,48(sp)
    800011b8:	03013783          	ld	a5,48(sp)
    800011bc:	00079663          	bnez	a5,800011c8 <xQueueGenericSendFromISR+0x30>
    800011c0:	30047073          	csrci	mstatus,8
    800011c4:	0000006f          	j	800011c4 <xQueueGenericSendFromISR+0x2c>
    800011c8:	01013783          	ld	a5,16(sp)
    800011cc:	00079863          	bnez	a5,800011dc <xQueueGenericSendFromISR+0x44>
    800011d0:	03013783          	ld	a5,48(sp)
    800011d4:	0807b783          	ld	a5,128(a5)
    800011d8:	00079663          	bnez	a5,800011e4 <xQueueGenericSendFromISR+0x4c>
    800011dc:	00100793          	li	a5,1
    800011e0:	0080006f          	j	800011e8 <xQueueGenericSendFromISR+0x50>
    800011e4:	00000793          	li	a5,0
    800011e8:	00079663          	bnez	a5,800011f4 <xQueueGenericSendFromISR+0x5c>
    800011ec:	30047073          	csrci	mstatus,8
    800011f0:	0000006f          	j	800011f0 <xQueueGenericSendFromISR+0x58>
    800011f4:	00013703          	ld	a4,0(sp)
    800011f8:	00200793          	li	a5,2
    800011fc:	00f71a63          	bne	a4,a5,80001210 <xQueueGenericSendFromISR+0x78>
    80001200:	03013783          	ld	a5,48(sp)
    80001204:	0787b703          	ld	a4,120(a5)
    80001208:	00100793          	li	a5,1
    8000120c:	00f71663          	bne	a4,a5,80001218 <xQueueGenericSendFromISR+0x80>
    80001210:	00100793          	li	a5,1
    80001214:	0080006f          	j	8000121c <xQueueGenericSendFromISR+0x84>
    80001218:	00000793          	li	a5,0
    8000121c:	00079663          	bnez	a5,80001228 <xQueueGenericSendFromISR+0x90>
    80001220:	30047073          	csrci	mstatus,8
    80001224:	0000006f          	j	80001224 <xQueueGenericSendFromISR+0x8c>
    80001228:	d18ff0ef          	jal	ra,80000740 <vPortSetInterruptMask>
    8000122c:	00050793          	mv	a5,a0
    80001230:	02f13423          	sd	a5,40(sp)
    80001234:	03013783          	ld	a5,48(sp)
    80001238:	0707b703          	ld	a4,112(a5)
    8000123c:	03013783          	ld	a5,48(sp)
    80001240:	0787b783          	ld	a5,120(a5)
    80001244:	00f76863          	bltu	a4,a5,80001254 <xQueueGenericSendFromISR+0xbc>
    80001248:	00013703          	ld	a4,0(sp)
    8000124c:	00200793          	li	a5,2
    80001250:	08f71063          	bne	a4,a5,800012d0 <xQueueGenericSendFromISR+0x138>
    80001254:	00013603          	ld	a2,0(sp)
    80001258:	01013583          	ld	a1,16(sp)
    8000125c:	03013503          	ld	a0,48(sp)
    80001260:	7bc000ef          	jal	ra,80001a1c <prvCopyDataToQueue>
    80001264:	03013783          	ld	a5,48(sp)
    80001268:	0907b703          	ld	a4,144(a5)
    8000126c:	fff00793          	li	a5,-1
    80001270:	04f71063          	bne	a4,a5,800012b0 <xQueueGenericSendFromISR+0x118>
    80001274:	03013783          	ld	a5,48(sp)
    80001278:	0487b783          	ld	a5,72(a5)
    8000127c:	04078463          	beqz	a5,800012c4 <xQueueGenericSendFromISR+0x12c>
    80001280:	03013783          	ld	a5,48(sp)
    80001284:	04878793          	addi	a5,a5,72
    80001288:	00078513          	mv	a0,a5
    8000128c:	6ec020ef          	jal	ra,80003978 <xTaskRemoveFromEventList>
    80001290:	00050793          	mv	a5,a0
    80001294:	02078863          	beqz	a5,800012c4 <xQueueGenericSendFromISR+0x12c>
    80001298:	00813783          	ld	a5,8(sp)
    8000129c:	02078463          	beqz	a5,800012c4 <xQueueGenericSendFromISR+0x12c>
    800012a0:	00813783          	ld	a5,8(sp)
    800012a4:	00100713          	li	a4,1
    800012a8:	00e7b023          	sd	a4,0(a5)
    800012ac:	0180006f          	j	800012c4 <xQueueGenericSendFromISR+0x12c>
    800012b0:	03013783          	ld	a5,48(sp)
    800012b4:	0907b783          	ld	a5,144(a5)
    800012b8:	00178713          	addi	a4,a5,1
    800012bc:	03013783          	ld	a5,48(sp)
    800012c0:	08e7b823          	sd	a4,144(a5)
    800012c4:	00100793          	li	a5,1
    800012c8:	02f13c23          	sd	a5,56(sp)
    800012cc:	0080006f          	j	800012d4 <xQueueGenericSendFromISR+0x13c>
    800012d0:	02013c23          	sd	zero,56(sp)
    800012d4:	02813783          	ld	a5,40(sp)
    800012d8:	0007879b          	sext.w	a5,a5
    800012dc:	00078513          	mv	a0,a5
    800012e0:	c40ff0ef          	jal	ra,80000720 <vPortClearInterruptMask>
    800012e4:	03813783          	ld	a5,56(sp)
    800012e8:	00078513          	mv	a0,a5
    800012ec:	04813083          	ld	ra,72(sp)
    800012f0:	05010113          	addi	sp,sp,80
    800012f4:	00008067          	ret

00000000800012f8 <xQueueGiveFromISR>:
    800012f8:	fc010113          	addi	sp,sp,-64
    800012fc:	02113c23          	sd	ra,56(sp)
    80001300:	00a13423          	sd	a0,8(sp)
    80001304:	00b13023          	sd	a1,0(sp)
    80001308:	00813783          	ld	a5,8(sp)
    8000130c:	02f13023          	sd	a5,32(sp)
    80001310:	02013783          	ld	a5,32(sp)
    80001314:	00079663          	bnez	a5,80001320 <xQueueGiveFromISR+0x28>
    80001318:	30047073          	csrci	mstatus,8
    8000131c:	0000006f          	j	8000131c <xQueueGiveFromISR+0x24>
    80001320:	02013783          	ld	a5,32(sp)
    80001324:	0807b783          	ld	a5,128(a5)
    80001328:	00078663          	beqz	a5,80001334 <xQueueGiveFromISR+0x3c>
    8000132c:	30047073          	csrci	mstatus,8
    80001330:	0000006f          	j	80001330 <xQueueGiveFromISR+0x38>
    80001334:	02013783          	ld	a5,32(sp)
    80001338:	0007b783          	ld	a5,0(a5)
    8000133c:	00079863          	bnez	a5,8000134c <xQueueGiveFromISR+0x54>
    80001340:	02013783          	ld	a5,32(sp)
    80001344:	0087b783          	ld	a5,8(a5)
    80001348:	00079663          	bnez	a5,80001354 <xQueueGiveFromISR+0x5c>
    8000134c:	00100793          	li	a5,1
    80001350:	0080006f          	j	80001358 <xQueueGiveFromISR+0x60>
    80001354:	00000793          	li	a5,0
    80001358:	00079663          	bnez	a5,80001364 <xQueueGiveFromISR+0x6c>
    8000135c:	30047073          	csrci	mstatus,8
    80001360:	0000006f          	j	80001360 <xQueueGiveFromISR+0x68>
    80001364:	bdcff0ef          	jal	ra,80000740 <vPortSetInterruptMask>
    80001368:	00050793          	mv	a5,a0
    8000136c:	00f13c23          	sd	a5,24(sp)
    80001370:	02013783          	ld	a5,32(sp)
    80001374:	0707b703          	ld	a4,112(a5)
    80001378:	02013783          	ld	a5,32(sp)
    8000137c:	0787b783          	ld	a5,120(a5)
    80001380:	08f77263          	bgeu	a4,a5,80001404 <xQueueGiveFromISR+0x10c>
    80001384:	02013783          	ld	a5,32(sp)
    80001388:	0707b783          	ld	a5,112(a5)
    8000138c:	00178713          	addi	a4,a5,1
    80001390:	02013783          	ld	a5,32(sp)
    80001394:	06e7b823          	sd	a4,112(a5)
    80001398:	02013783          	ld	a5,32(sp)
    8000139c:	0907b703          	ld	a4,144(a5)
    800013a0:	fff00793          	li	a5,-1
    800013a4:	04f71063          	bne	a4,a5,800013e4 <xQueueGiveFromISR+0xec>
    800013a8:	02013783          	ld	a5,32(sp)
    800013ac:	0487b783          	ld	a5,72(a5)
    800013b0:	04078463          	beqz	a5,800013f8 <xQueueGiveFromISR+0x100>
    800013b4:	02013783          	ld	a5,32(sp)
    800013b8:	04878793          	addi	a5,a5,72
    800013bc:	00078513          	mv	a0,a5
    800013c0:	5b8020ef          	jal	ra,80003978 <xTaskRemoveFromEventList>
    800013c4:	00050793          	mv	a5,a0
    800013c8:	02078863          	beqz	a5,800013f8 <xQueueGiveFromISR+0x100>
    800013cc:	00013783          	ld	a5,0(sp)
    800013d0:	02078463          	beqz	a5,800013f8 <xQueueGiveFromISR+0x100>
    800013d4:	00013783          	ld	a5,0(sp)
    800013d8:	00100713          	li	a4,1
    800013dc:	00e7b023          	sd	a4,0(a5)
    800013e0:	0180006f          	j	800013f8 <xQueueGiveFromISR+0x100>
    800013e4:	02013783          	ld	a5,32(sp)
    800013e8:	0907b783          	ld	a5,144(a5)
    800013ec:	00178713          	addi	a4,a5,1
    800013f0:	02013783          	ld	a5,32(sp)
    800013f4:	08e7b823          	sd	a4,144(a5)
    800013f8:	00100793          	li	a5,1
    800013fc:	02f13423          	sd	a5,40(sp)
    80001400:	0080006f          	j	80001408 <xQueueGiveFromISR+0x110>
    80001404:	02013423          	sd	zero,40(sp)
    80001408:	01813783          	ld	a5,24(sp)
    8000140c:	0007879b          	sext.w	a5,a5
    80001410:	00078513          	mv	a0,a5
    80001414:	b0cff0ef          	jal	ra,80000720 <vPortClearInterruptMask>
    80001418:	02813783          	ld	a5,40(sp)
    8000141c:	00078513          	mv	a0,a5
    80001420:	03813083          	ld	ra,56(sp)
    80001424:	04010113          	addi	sp,sp,64
    80001428:	00008067          	ret

000000008000142c <xQueueGenericReceive>:
    8000142c:	fa010113          	addi	sp,sp,-96
    80001430:	04113c23          	sd	ra,88(sp)
    80001434:	00a13c23          	sd	a0,24(sp)
    80001438:	00b13823          	sd	a1,16(sp)
    8000143c:	00060793          	mv	a5,a2
    80001440:	00d13023          	sd	a3,0(sp)
    80001444:	00f12623          	sw	a5,12(sp)
    80001448:	04013423          	sd	zero,72(sp)
    8000144c:	01813783          	ld	a5,24(sp)
    80001450:	04f13023          	sd	a5,64(sp)
    80001454:	04013783          	ld	a5,64(sp)
    80001458:	00079663          	bnez	a5,80001464 <xQueueGenericReceive+0x38>
    8000145c:	30047073          	csrci	mstatus,8
    80001460:	0000006f          	j	80001460 <xQueueGenericReceive+0x34>
    80001464:	01013783          	ld	a5,16(sp)
    80001468:	00079863          	bnez	a5,80001478 <xQueueGenericReceive+0x4c>
    8000146c:	04013783          	ld	a5,64(sp)
    80001470:	0807b783          	ld	a5,128(a5)
    80001474:	00079663          	bnez	a5,80001480 <xQueueGenericReceive+0x54>
    80001478:	00100793          	li	a5,1
    8000147c:	0080006f          	j	80001484 <xQueueGenericReceive+0x58>
    80001480:	00000793          	li	a5,0
    80001484:	00079663          	bnez	a5,80001490 <xQueueGenericReceive+0x64>
    80001488:	30047073          	csrci	mstatus,8
    8000148c:	0000006f          	j	8000148c <xQueueGenericReceive+0x60>
    80001490:	16c030ef          	jal	ra,800045fc <xTaskGetSchedulerState>
    80001494:	00050793          	mv	a5,a0
    80001498:	00079663          	bnez	a5,800014a4 <xQueueGenericReceive+0x78>
    8000149c:	00c12783          	lw	a5,12(sp)
    800014a0:	00079663          	bnez	a5,800014ac <xQueueGenericReceive+0x80>
    800014a4:	00100793          	li	a5,1
    800014a8:	0080006f          	j	800014b0 <xQueueGenericReceive+0x84>
    800014ac:	00000793          	li	a5,0
    800014b0:	00079663          	bnez	a5,800014bc <xQueueGenericReceive+0x90>
    800014b4:	30047073          	csrci	mstatus,8
    800014b8:	0000006f          	j	800014b8 <xQueueGenericReceive+0x8c>
    800014bc:	43c030ef          	jal	ra,800048f8 <vTaskEnterCritical>
    800014c0:	04013783          	ld	a5,64(sp)
    800014c4:	0707b783          	ld	a5,112(a5)
    800014c8:	0c078263          	beqz	a5,8000158c <xQueueGenericReceive+0x160>
    800014cc:	04013783          	ld	a5,64(sp)
    800014d0:	0187b783          	ld	a5,24(a5)
    800014d4:	02f13c23          	sd	a5,56(sp)
    800014d8:	01013583          	ld	a1,16(sp)
    800014dc:	04013503          	ld	a0,64(sp)
    800014e0:	6c0000ef          	jal	ra,80001ba0 <prvCopyDataFromQueue>
    800014e4:	00013783          	ld	a5,0(sp)
    800014e8:	06079263          	bnez	a5,8000154c <xQueueGenericReceive+0x120>
    800014ec:	04013783          	ld	a5,64(sp)
    800014f0:	0707b783          	ld	a5,112(a5)
    800014f4:	fff78713          	addi	a4,a5,-1
    800014f8:	04013783          	ld	a5,64(sp)
    800014fc:	06e7b823          	sd	a4,112(a5)
    80001500:	04013783          	ld	a5,64(sp)
    80001504:	0007b783          	ld	a5,0(a5)
    80001508:	00079a63          	bnez	a5,8000151c <xQueueGenericReceive+0xf0>
    8000150c:	4e0030ef          	jal	ra,800049ec <pvTaskIncrementMutexHeldCount>
    80001510:	00050713          	mv	a4,a0
    80001514:	04013783          	ld	a5,64(sp)
    80001518:	00e7b423          	sd	a4,8(a5)
    8000151c:	04013783          	ld	a5,64(sp)
    80001520:	0207b783          	ld	a5,32(a5)
    80001524:	04078e63          	beqz	a5,80001580 <xQueueGenericReceive+0x154>
    80001528:	04013783          	ld	a5,64(sp)
    8000152c:	02078793          	addi	a5,a5,32
    80001530:	00078513          	mv	a0,a5
    80001534:	444020ef          	jal	ra,80003978 <xTaskRemoveFromEventList>
    80001538:	00050713          	mv	a4,a0
    8000153c:	00100793          	li	a5,1
    80001540:	04f71063          	bne	a4,a5,80001580 <xQueueGenericReceive+0x154>
    80001544:	80cff0ef          	jal	ra,80000550 <vPortYield>
    80001548:	0380006f          	j	80001580 <xQueueGenericReceive+0x154>
    8000154c:	04013783          	ld	a5,64(sp)
    80001550:	03813703          	ld	a4,56(sp)
    80001554:	00e7bc23          	sd	a4,24(a5)
    80001558:	04013783          	ld	a5,64(sp)
    8000155c:	0487b783          	ld	a5,72(a5)
    80001560:	02078063          	beqz	a5,80001580 <xQueueGenericReceive+0x154>
    80001564:	04013783          	ld	a5,64(sp)
    80001568:	04878793          	addi	a5,a5,72
    8000156c:	00078513          	mv	a0,a5
    80001570:	408020ef          	jal	ra,80003978 <xTaskRemoveFromEventList>
    80001574:	00050793          	mv	a5,a0
    80001578:	00078463          	beqz	a5,80001580 <xQueueGenericReceive+0x154>
    8000157c:	fd5fe0ef          	jal	ra,80000550 <vPortYield>
    80001580:	3b8030ef          	jal	ra,80004938 <vTaskExitCritical>
    80001584:	00100793          	li	a5,1
    80001588:	1180006f          	j	800016a0 <xQueueGenericReceive+0x274>
    8000158c:	00c12783          	lw	a5,12(sp)
    80001590:	00079863          	bnez	a5,800015a0 <xQueueGenericReceive+0x174>
    80001594:	3a4030ef          	jal	ra,80004938 <vTaskExitCritical>
    80001598:	00000793          	li	a5,0
    8000159c:	1040006f          	j	800016a0 <xQueueGenericReceive+0x274>
    800015a0:	04813783          	ld	a5,72(sp)
    800015a4:	00079c63          	bnez	a5,800015bc <xQueueGenericReceive+0x190>
    800015a8:	02810793          	addi	a5,sp,40
    800015ac:	00078513          	mv	a0,a5
    800015b0:	620020ef          	jal	ra,80003bd0 <vTaskSetTimeOutState>
    800015b4:	00100793          	li	a5,1
    800015b8:	04f13423          	sd	a5,72(sp)
    800015bc:	37c030ef          	jal	ra,80004938 <vTaskExitCritical>
    800015c0:	011010ef          	jal	ra,80002dd0 <vTaskSuspendAll>
    800015c4:	334030ef          	jal	ra,800048f8 <vTaskEnterCritical>
    800015c8:	04013783          	ld	a5,64(sp)
    800015cc:	0887b703          	ld	a4,136(a5)
    800015d0:	fff00793          	li	a5,-1
    800015d4:	00f71663          	bne	a4,a5,800015e0 <xQueueGenericReceive+0x1b4>
    800015d8:	04013783          	ld	a5,64(sp)
    800015dc:	0807b423          	sd	zero,136(a5)
    800015e0:	04013783          	ld	a5,64(sp)
    800015e4:	0907b703          	ld	a4,144(a5)
    800015e8:	fff00793          	li	a5,-1
    800015ec:	00f71663          	bne	a4,a5,800015f8 <xQueueGenericReceive+0x1cc>
    800015f0:	04013783          	ld	a5,64(sp)
    800015f4:	0807b823          	sd	zero,144(a5)
    800015f8:	340030ef          	jal	ra,80004938 <vTaskExitCritical>
    800015fc:	00c10713          	addi	a4,sp,12
    80001600:	02810793          	addi	a5,sp,40
    80001604:	00070593          	mv	a1,a4
    80001608:	00078513          	mv	a0,a5
    8000160c:	614020ef          	jal	ra,80003c20 <xTaskCheckForTimeOut>
    80001610:	00050793          	mv	a5,a0
    80001614:	06079e63          	bnez	a5,80001690 <xQueueGenericReceive+0x264>
    80001618:	04013503          	ld	a0,64(sp)
    8000161c:	6fc000ef          	jal	ra,80001d18 <prvIsQueueEmpty>
    80001620:	00050793          	mv	a5,a0
    80001624:	04078e63          	beqz	a5,80001680 <xQueueGenericReceive+0x254>
    80001628:	04013783          	ld	a5,64(sp)
    8000162c:	0007b783          	ld	a5,0(a5)
    80001630:	00079e63          	bnez	a5,8000164c <xQueueGenericReceive+0x220>
    80001634:	2c4030ef          	jal	ra,800048f8 <vTaskEnterCritical>
    80001638:	04013783          	ld	a5,64(sp)
    8000163c:	0087b783          	ld	a5,8(a5)
    80001640:	00078513          	mv	a0,a5
    80001644:	008030ef          	jal	ra,8000464c <vTaskPriorityInherit>
    80001648:	2f0030ef          	jal	ra,80004938 <vTaskExitCritical>
    8000164c:	04013783          	ld	a5,64(sp)
    80001650:	04878793          	addi	a5,a5,72
    80001654:	00c12703          	lw	a4,12(sp)
    80001658:	00070593          	mv	a1,a4
    8000165c:	00078513          	mv	a0,a5
    80001660:	088020ef          	jal	ra,800036e8 <vTaskPlaceOnEventList>
    80001664:	04013503          	ld	a0,64(sp)
    80001668:	5c4000ef          	jal	ra,80001c2c <prvUnlockQueue>
    8000166c:	788010ef          	jal	ra,80002df4 <xTaskResumeAll>
    80001670:	00050793          	mv	a5,a0
    80001674:	e40794e3          	bnez	a5,800014bc <xQueueGenericReceive+0x90>
    80001678:	ed9fe0ef          	jal	ra,80000550 <vPortYield>
    8000167c:	e41ff06f          	j	800014bc <xQueueGenericReceive+0x90>
    80001680:	04013503          	ld	a0,64(sp)
    80001684:	5a8000ef          	jal	ra,80001c2c <prvUnlockQueue>
    80001688:	76c010ef          	jal	ra,80002df4 <xTaskResumeAll>
    8000168c:	e31ff06f          	j	800014bc <xQueueGenericReceive+0x90>
    80001690:	04013503          	ld	a0,64(sp)
    80001694:	598000ef          	jal	ra,80001c2c <prvUnlockQueue>
    80001698:	75c010ef          	jal	ra,80002df4 <xTaskResumeAll>
    8000169c:	00000793          	li	a5,0
    800016a0:	00078513          	mv	a0,a5
    800016a4:	05813083          	ld	ra,88(sp)
    800016a8:	06010113          	addi	sp,sp,96
    800016ac:	00008067          	ret

00000000800016b0 <xQueueReceiveFromISR>:
    800016b0:	fb010113          	addi	sp,sp,-80
    800016b4:	04113423          	sd	ra,72(sp)
    800016b8:	00a13c23          	sd	a0,24(sp)
    800016bc:	00b13823          	sd	a1,16(sp)
    800016c0:	00c13423          	sd	a2,8(sp)
    800016c4:	01813783          	ld	a5,24(sp)
    800016c8:	02f13823          	sd	a5,48(sp)
    800016cc:	03013783          	ld	a5,48(sp)
    800016d0:	00079663          	bnez	a5,800016dc <xQueueReceiveFromISR+0x2c>
    800016d4:	30047073          	csrci	mstatus,8
    800016d8:	0000006f          	j	800016d8 <xQueueReceiveFromISR+0x28>
    800016dc:	01013783          	ld	a5,16(sp)
    800016e0:	00079863          	bnez	a5,800016f0 <xQueueReceiveFromISR+0x40>
    800016e4:	03013783          	ld	a5,48(sp)
    800016e8:	0807b783          	ld	a5,128(a5)
    800016ec:	00079663          	bnez	a5,800016f8 <xQueueReceiveFromISR+0x48>
    800016f0:	00100793          	li	a5,1
    800016f4:	0080006f          	j	800016fc <xQueueReceiveFromISR+0x4c>
    800016f8:	00000793          	li	a5,0
    800016fc:	00079663          	bnez	a5,80001708 <xQueueReceiveFromISR+0x58>
    80001700:	30047073          	csrci	mstatus,8
    80001704:	0000006f          	j	80001704 <xQueueReceiveFromISR+0x54>
    80001708:	838ff0ef          	jal	ra,80000740 <vPortSetInterruptMask>
    8000170c:	00050793          	mv	a5,a0
    80001710:	02f13423          	sd	a5,40(sp)
    80001714:	03013783          	ld	a5,48(sp)
    80001718:	0707b783          	ld	a5,112(a5)
    8000171c:	08078863          	beqz	a5,800017ac <xQueueReceiveFromISR+0xfc>
    80001720:	01013583          	ld	a1,16(sp)
    80001724:	03013503          	ld	a0,48(sp)
    80001728:	478000ef          	jal	ra,80001ba0 <prvCopyDataFromQueue>
    8000172c:	03013783          	ld	a5,48(sp)
    80001730:	0707b783          	ld	a5,112(a5)
    80001734:	fff78713          	addi	a4,a5,-1
    80001738:	03013783          	ld	a5,48(sp)
    8000173c:	06e7b823          	sd	a4,112(a5)
    80001740:	03013783          	ld	a5,48(sp)
    80001744:	0887b703          	ld	a4,136(a5)
    80001748:	fff00793          	li	a5,-1
    8000174c:	04f71063          	bne	a4,a5,8000178c <xQueueReceiveFromISR+0xdc>
    80001750:	03013783          	ld	a5,48(sp)
    80001754:	0207b783          	ld	a5,32(a5)
    80001758:	04078463          	beqz	a5,800017a0 <xQueueReceiveFromISR+0xf0>
    8000175c:	03013783          	ld	a5,48(sp)
    80001760:	02078793          	addi	a5,a5,32
    80001764:	00078513          	mv	a0,a5
    80001768:	210020ef          	jal	ra,80003978 <xTaskRemoveFromEventList>
    8000176c:	00050793          	mv	a5,a0
    80001770:	02078863          	beqz	a5,800017a0 <xQueueReceiveFromISR+0xf0>
    80001774:	00813783          	ld	a5,8(sp)
    80001778:	02078463          	beqz	a5,800017a0 <xQueueReceiveFromISR+0xf0>
    8000177c:	00813783          	ld	a5,8(sp)
    80001780:	00100713          	li	a4,1
    80001784:	00e7b023          	sd	a4,0(a5)
    80001788:	0180006f          	j	800017a0 <xQueueReceiveFromISR+0xf0>
    8000178c:	03013783          	ld	a5,48(sp)
    80001790:	0887b783          	ld	a5,136(a5)
    80001794:	00178713          	addi	a4,a5,1
    80001798:	03013783          	ld	a5,48(sp)
    8000179c:	08e7b423          	sd	a4,136(a5)
    800017a0:	00100793          	li	a5,1
    800017a4:	02f13c23          	sd	a5,56(sp)
    800017a8:	0080006f          	j	800017b0 <xQueueReceiveFromISR+0x100>
    800017ac:	02013c23          	sd	zero,56(sp)
    800017b0:	02813783          	ld	a5,40(sp)
    800017b4:	0007879b          	sext.w	a5,a5
    800017b8:	00078513          	mv	a0,a5
    800017bc:	f65fe0ef          	jal	ra,80000720 <vPortClearInterruptMask>
    800017c0:	03813783          	ld	a5,56(sp)
    800017c4:	00078513          	mv	a0,a5
    800017c8:	04813083          	ld	ra,72(sp)
    800017cc:	05010113          	addi	sp,sp,80
    800017d0:	00008067          	ret

00000000800017d4 <xQueuePeekFromISR>:
    800017d4:	fc010113          	addi	sp,sp,-64
    800017d8:	02113c23          	sd	ra,56(sp)
    800017dc:	00a13423          	sd	a0,8(sp)
    800017e0:	00b13023          	sd	a1,0(sp)
    800017e4:	00813783          	ld	a5,8(sp)
    800017e8:	02f13023          	sd	a5,32(sp)
    800017ec:	02013783          	ld	a5,32(sp)
    800017f0:	00079663          	bnez	a5,800017fc <xQueuePeekFromISR+0x28>
    800017f4:	30047073          	csrci	mstatus,8
    800017f8:	0000006f          	j	800017f8 <xQueuePeekFromISR+0x24>
    800017fc:	00013783          	ld	a5,0(sp)
    80001800:	00079863          	bnez	a5,80001810 <xQueuePeekFromISR+0x3c>
    80001804:	02013783          	ld	a5,32(sp)
    80001808:	0807b783          	ld	a5,128(a5)
    8000180c:	00079663          	bnez	a5,80001818 <xQueuePeekFromISR+0x44>
    80001810:	00100793          	li	a5,1
    80001814:	0080006f          	j	8000181c <xQueuePeekFromISR+0x48>
    80001818:	00000793          	li	a5,0
    8000181c:	00079663          	bnez	a5,80001828 <xQueuePeekFromISR+0x54>
    80001820:	30047073          	csrci	mstatus,8
    80001824:	0000006f          	j	80001824 <xQueuePeekFromISR+0x50>
    80001828:	02013783          	ld	a5,32(sp)
    8000182c:	0807b783          	ld	a5,128(a5)
    80001830:	00079663          	bnez	a5,8000183c <xQueuePeekFromISR+0x68>
    80001834:	30047073          	csrci	mstatus,8
    80001838:	0000006f          	j	80001838 <xQueuePeekFromISR+0x64>
    8000183c:	f05fe0ef          	jal	ra,80000740 <vPortSetInterruptMask>
    80001840:	00050793          	mv	a5,a0
    80001844:	00f13c23          	sd	a5,24(sp)
    80001848:	02013783          	ld	a5,32(sp)
    8000184c:	0707b783          	ld	a5,112(a5)
    80001850:	02078a63          	beqz	a5,80001884 <xQueuePeekFromISR+0xb0>
    80001854:	02013783          	ld	a5,32(sp)
    80001858:	0187b783          	ld	a5,24(a5)
    8000185c:	00f13823          	sd	a5,16(sp)
    80001860:	00013583          	ld	a1,0(sp)
    80001864:	02013503          	ld	a0,32(sp)
    80001868:	338000ef          	jal	ra,80001ba0 <prvCopyDataFromQueue>
    8000186c:	02013783          	ld	a5,32(sp)
    80001870:	01013703          	ld	a4,16(sp)
    80001874:	00e7bc23          	sd	a4,24(a5)
    80001878:	00100793          	li	a5,1
    8000187c:	02f13423          	sd	a5,40(sp)
    80001880:	0080006f          	j	80001888 <xQueuePeekFromISR+0xb4>
    80001884:	02013423          	sd	zero,40(sp)
    80001888:	01813783          	ld	a5,24(sp)
    8000188c:	0007879b          	sext.w	a5,a5
    80001890:	00078513          	mv	a0,a5
    80001894:	e8dfe0ef          	jal	ra,80000720 <vPortClearInterruptMask>
    80001898:	02813783          	ld	a5,40(sp)
    8000189c:	00078513          	mv	a0,a5
    800018a0:	03813083          	ld	ra,56(sp)
    800018a4:	04010113          	addi	sp,sp,64
    800018a8:	00008067          	ret

00000000800018ac <uxQueueMessagesWaiting>:
    800018ac:	fd010113          	addi	sp,sp,-48
    800018b0:	02113423          	sd	ra,40(sp)
    800018b4:	00a13423          	sd	a0,8(sp)
    800018b8:	00813783          	ld	a5,8(sp)
    800018bc:	00079663          	bnez	a5,800018c8 <uxQueueMessagesWaiting+0x1c>
    800018c0:	30047073          	csrci	mstatus,8
    800018c4:	0000006f          	j	800018c4 <uxQueueMessagesWaiting+0x18>
    800018c8:	030030ef          	jal	ra,800048f8 <vTaskEnterCritical>
    800018cc:	00813783          	ld	a5,8(sp)
    800018d0:	0707b783          	ld	a5,112(a5)
    800018d4:	00f13c23          	sd	a5,24(sp)
    800018d8:	060030ef          	jal	ra,80004938 <vTaskExitCritical>
    800018dc:	01813783          	ld	a5,24(sp)
    800018e0:	00078513          	mv	a0,a5
    800018e4:	02813083          	ld	ra,40(sp)
    800018e8:	03010113          	addi	sp,sp,48
    800018ec:	00008067          	ret

00000000800018f0 <uxQueueSpacesAvailable>:
    800018f0:	fd010113          	addi	sp,sp,-48
    800018f4:	02113423          	sd	ra,40(sp)
    800018f8:	00a13423          	sd	a0,8(sp)
    800018fc:	00813783          	ld	a5,8(sp)
    80001900:	00f13c23          	sd	a5,24(sp)
    80001904:	01813783          	ld	a5,24(sp)
    80001908:	00079663          	bnez	a5,80001914 <uxQueueSpacesAvailable+0x24>
    8000190c:	30047073          	csrci	mstatus,8
    80001910:	0000006f          	j	80001910 <uxQueueSpacesAvailable+0x20>
    80001914:	7e5020ef          	jal	ra,800048f8 <vTaskEnterCritical>
    80001918:	01813783          	ld	a5,24(sp)
    8000191c:	0787b703          	ld	a4,120(a5)
    80001920:	01813783          	ld	a5,24(sp)
    80001924:	0707b783          	ld	a5,112(a5)
    80001928:	40f707b3          	sub	a5,a4,a5
    8000192c:	00f13823          	sd	a5,16(sp)
    80001930:	008030ef          	jal	ra,80004938 <vTaskExitCritical>
    80001934:	01013783          	ld	a5,16(sp)
    80001938:	00078513          	mv	a0,a5
    8000193c:	02813083          	ld	ra,40(sp)
    80001940:	03010113          	addi	sp,sp,48
    80001944:	00008067          	ret

0000000080001948 <uxQueueMessagesWaitingFromISR>:
    80001948:	fe010113          	addi	sp,sp,-32
    8000194c:	00a13423          	sd	a0,8(sp)
    80001950:	00813783          	ld	a5,8(sp)
    80001954:	00079663          	bnez	a5,80001960 <uxQueueMessagesWaitingFromISR+0x18>
    80001958:	30047073          	csrci	mstatus,8
    8000195c:	0000006f          	j	8000195c <uxQueueMessagesWaitingFromISR+0x14>
    80001960:	00813783          	ld	a5,8(sp)
    80001964:	0707b783          	ld	a5,112(a5)
    80001968:	00f13c23          	sd	a5,24(sp)
    8000196c:	01813783          	ld	a5,24(sp)
    80001970:	00078513          	mv	a0,a5
    80001974:	02010113          	addi	sp,sp,32
    80001978:	00008067          	ret

000000008000197c <vQueueDelete>:
    8000197c:	fd010113          	addi	sp,sp,-48
    80001980:	02113423          	sd	ra,40(sp)
    80001984:	00a13423          	sd	a0,8(sp)
    80001988:	00813783          	ld	a5,8(sp)
    8000198c:	00f13c23          	sd	a5,24(sp)
    80001990:	01813783          	ld	a5,24(sp)
    80001994:	00079663          	bnez	a5,800019a0 <vQueueDelete+0x24>
    80001998:	30047073          	csrci	mstatus,8
    8000199c:	0000006f          	j	8000199c <vQueueDelete+0x20>
    800019a0:	01813503          	ld	a0,24(sp)
    800019a4:	528000ef          	jal	ra,80001ecc <vQueueUnregisterQueue>
    800019a8:	01813503          	ld	a0,24(sp)
    800019ac:	220050ef          	jal	ra,80006bcc <vPortFree>
    800019b0:	00000013          	nop
    800019b4:	02813083          	ld	ra,40(sp)
    800019b8:	03010113          	addi	sp,sp,48
    800019bc:	00008067          	ret

00000000800019c0 <uxQueueGetQueueNumber>:
    800019c0:	ff010113          	addi	sp,sp,-16
    800019c4:	00a13423          	sd	a0,8(sp)
    800019c8:	00813783          	ld	a5,8(sp)
    800019cc:	0987b783          	ld	a5,152(a5)
    800019d0:	00078513          	mv	a0,a5
    800019d4:	01010113          	addi	sp,sp,16
    800019d8:	00008067          	ret

00000000800019dc <vQueueSetQueueNumber>:
    800019dc:	ff010113          	addi	sp,sp,-16
    800019e0:	00a13423          	sd	a0,8(sp)
    800019e4:	00b13023          	sd	a1,0(sp)
    800019e8:	00813783          	ld	a5,8(sp)
    800019ec:	00013703          	ld	a4,0(sp)
    800019f0:	08e7bc23          	sd	a4,152(a5)
    800019f4:	00000013          	nop
    800019f8:	01010113          	addi	sp,sp,16
    800019fc:	00008067          	ret

0000000080001a00 <ucQueueGetQueueType>:
    80001a00:	ff010113          	addi	sp,sp,-16
    80001a04:	00a13423          	sd	a0,8(sp)
    80001a08:	00813783          	ld	a5,8(sp)
    80001a0c:	0a07c783          	lbu	a5,160(a5)
    80001a10:	00078513          	mv	a0,a5
    80001a14:	01010113          	addi	sp,sp,16
    80001a18:	00008067          	ret

0000000080001a1c <prvCopyDataToQueue>:
    80001a1c:	fc010113          	addi	sp,sp,-64
    80001a20:	02113c23          	sd	ra,56(sp)
    80001a24:	00a13c23          	sd	a0,24(sp)
    80001a28:	00b13823          	sd	a1,16(sp)
    80001a2c:	00c13423          	sd	a2,8(sp)
    80001a30:	02013423          	sd	zero,40(sp)
    80001a34:	01813783          	ld	a5,24(sp)
    80001a38:	0807b783          	ld	a5,128(a5)
    80001a3c:	02079863          	bnez	a5,80001a6c <prvCopyDataToQueue+0x50>
    80001a40:	01813783          	ld	a5,24(sp)
    80001a44:	0007b783          	ld	a5,0(a5)
    80001a48:	12079863          	bnez	a5,80001b78 <prvCopyDataToQueue+0x15c>
    80001a4c:	01813783          	ld	a5,24(sp)
    80001a50:	0087b783          	ld	a5,8(a5)
    80001a54:	00078513          	mv	a0,a5
    80001a58:	55d020ef          	jal	ra,800047b4 <xTaskPriorityDisinherit>
    80001a5c:	02a13423          	sd	a0,40(sp)
    80001a60:	01813783          	ld	a5,24(sp)
    80001a64:	0007b423          	sd	zero,8(a5)
    80001a68:	1100006f          	j	80001b78 <prvCopyDataToQueue+0x15c>
    80001a6c:	00813783          	ld	a5,8(sp)
    80001a70:	06079463          	bnez	a5,80001ad8 <prvCopyDataToQueue+0xbc>
    80001a74:	01813783          	ld	a5,24(sp)
    80001a78:	0107b703          	ld	a4,16(a5)
    80001a7c:	01813783          	ld	a5,24(sp)
    80001a80:	0807b783          	ld	a5,128(a5)
    80001a84:	00078613          	mv	a2,a5
    80001a88:	01013583          	ld	a1,16(sp)
    80001a8c:	00070513          	mv	a0,a4
    80001a90:	2a8050ef          	jal	ra,80006d38 <memcpy>
    80001a94:	01813783          	ld	a5,24(sp)
    80001a98:	0107b703          	ld	a4,16(a5)
    80001a9c:	01813783          	ld	a5,24(sp)
    80001aa0:	0807b783          	ld	a5,128(a5)
    80001aa4:	00f70733          	add	a4,a4,a5
    80001aa8:	01813783          	ld	a5,24(sp)
    80001aac:	00e7b823          	sd	a4,16(a5)
    80001ab0:	01813783          	ld	a5,24(sp)
    80001ab4:	0107b703          	ld	a4,16(a5)
    80001ab8:	01813783          	ld	a5,24(sp)
    80001abc:	0087b783          	ld	a5,8(a5)
    80001ac0:	0af76c63          	bltu	a4,a5,80001b78 <prvCopyDataToQueue+0x15c>
    80001ac4:	01813783          	ld	a5,24(sp)
    80001ac8:	0007b703          	ld	a4,0(a5)
    80001acc:	01813783          	ld	a5,24(sp)
    80001ad0:	00e7b823          	sd	a4,16(a5)
    80001ad4:	0a40006f          	j	80001b78 <prvCopyDataToQueue+0x15c>
    80001ad8:	01813783          	ld	a5,24(sp)
    80001adc:	0187b703          	ld	a4,24(a5)
    80001ae0:	01813783          	ld	a5,24(sp)
    80001ae4:	0807b783          	ld	a5,128(a5)
    80001ae8:	00078613          	mv	a2,a5
    80001aec:	01013583          	ld	a1,16(sp)
    80001af0:	00070513          	mv	a0,a4
    80001af4:	244050ef          	jal	ra,80006d38 <memcpy>
    80001af8:	01813783          	ld	a5,24(sp)
    80001afc:	0187b703          	ld	a4,24(a5)
    80001b00:	01813783          	ld	a5,24(sp)
    80001b04:	0807b783          	ld	a5,128(a5)
    80001b08:	40f007b3          	neg	a5,a5
    80001b0c:	00f70733          	add	a4,a4,a5
    80001b10:	01813783          	ld	a5,24(sp)
    80001b14:	00e7bc23          	sd	a4,24(a5)
    80001b18:	01813783          	ld	a5,24(sp)
    80001b1c:	0187b703          	ld	a4,24(a5)
    80001b20:	01813783          	ld	a5,24(sp)
    80001b24:	0007b783          	ld	a5,0(a5)
    80001b28:	02f77263          	bgeu	a4,a5,80001b4c <prvCopyDataToQueue+0x130>
    80001b2c:	01813783          	ld	a5,24(sp)
    80001b30:	0087b703          	ld	a4,8(a5)
    80001b34:	01813783          	ld	a5,24(sp)
    80001b38:	0807b783          	ld	a5,128(a5)
    80001b3c:	40f007b3          	neg	a5,a5
    80001b40:	00f70733          	add	a4,a4,a5
    80001b44:	01813783          	ld	a5,24(sp)
    80001b48:	00e7bc23          	sd	a4,24(a5)
    80001b4c:	00813703          	ld	a4,8(sp)
    80001b50:	00200793          	li	a5,2
    80001b54:	02f71263          	bne	a4,a5,80001b78 <prvCopyDataToQueue+0x15c>
    80001b58:	01813783          	ld	a5,24(sp)
    80001b5c:	0707b783          	ld	a5,112(a5)
    80001b60:	00078c63          	beqz	a5,80001b78 <prvCopyDataToQueue+0x15c>
    80001b64:	01813783          	ld	a5,24(sp)
    80001b68:	0707b783          	ld	a5,112(a5)
    80001b6c:	fff78713          	addi	a4,a5,-1
    80001b70:	01813783          	ld	a5,24(sp)
    80001b74:	06e7b823          	sd	a4,112(a5)
    80001b78:	01813783          	ld	a5,24(sp)
    80001b7c:	0707b783          	ld	a5,112(a5)
    80001b80:	00178713          	addi	a4,a5,1
    80001b84:	01813783          	ld	a5,24(sp)
    80001b88:	06e7b823          	sd	a4,112(a5)
    80001b8c:	02813783          	ld	a5,40(sp)
    80001b90:	00078513          	mv	a0,a5
    80001b94:	03813083          	ld	ra,56(sp)
    80001b98:	04010113          	addi	sp,sp,64
    80001b9c:	00008067          	ret

0000000080001ba0 <prvCopyDataFromQueue>:
    80001ba0:	fe010113          	addi	sp,sp,-32
    80001ba4:	00113c23          	sd	ra,24(sp)
    80001ba8:	00a13423          	sd	a0,8(sp)
    80001bac:	00b13023          	sd	a1,0(sp)
    80001bb0:	00813783          	ld	a5,8(sp)
    80001bb4:	0807b783          	ld	a5,128(a5)
    80001bb8:	06078263          	beqz	a5,80001c1c <prvCopyDataFromQueue+0x7c>
    80001bbc:	00813783          	ld	a5,8(sp)
    80001bc0:	0187b703          	ld	a4,24(a5)
    80001bc4:	00813783          	ld	a5,8(sp)
    80001bc8:	0807b783          	ld	a5,128(a5)
    80001bcc:	00f70733          	add	a4,a4,a5
    80001bd0:	00813783          	ld	a5,8(sp)
    80001bd4:	00e7bc23          	sd	a4,24(a5)
    80001bd8:	00813783          	ld	a5,8(sp)
    80001bdc:	0187b703          	ld	a4,24(a5)
    80001be0:	00813783          	ld	a5,8(sp)
    80001be4:	0087b783          	ld	a5,8(a5)
    80001be8:	00f76a63          	bltu	a4,a5,80001bfc <prvCopyDataFromQueue+0x5c>
    80001bec:	00813783          	ld	a5,8(sp)
    80001bf0:	0007b703          	ld	a4,0(a5)
    80001bf4:	00813783          	ld	a5,8(sp)
    80001bf8:	00e7bc23          	sd	a4,24(a5)
    80001bfc:	00813783          	ld	a5,8(sp)
    80001c00:	0187b703          	ld	a4,24(a5)
    80001c04:	00813783          	ld	a5,8(sp)
    80001c08:	0807b783          	ld	a5,128(a5)
    80001c0c:	00078613          	mv	a2,a5
    80001c10:	00070593          	mv	a1,a4
    80001c14:	00013503          	ld	a0,0(sp)
    80001c18:	120050ef          	jal	ra,80006d38 <memcpy>
    80001c1c:	00000013          	nop
    80001c20:	01813083          	ld	ra,24(sp)
    80001c24:	02010113          	addi	sp,sp,32
    80001c28:	00008067          	ret

0000000080001c2c <prvUnlockQueue>:
    80001c2c:	fe010113          	addi	sp,sp,-32
    80001c30:	00113c23          	sd	ra,24(sp)
    80001c34:	00a13423          	sd	a0,8(sp)
    80001c38:	4c1020ef          	jal	ra,800048f8 <vTaskEnterCritical>
    80001c3c:	0400006f          	j	80001c7c <prvUnlockQueue+0x50>
    80001c40:	00813783          	ld	a5,8(sp)
    80001c44:	0487b783          	ld	a5,72(a5)
    80001c48:	04078263          	beqz	a5,80001c8c <prvUnlockQueue+0x60>
    80001c4c:	00813783          	ld	a5,8(sp)
    80001c50:	04878793          	addi	a5,a5,72
    80001c54:	00078513          	mv	a0,a5
    80001c58:	521010ef          	jal	ra,80003978 <xTaskRemoveFromEventList>
    80001c5c:	00050793          	mv	a5,a0
    80001c60:	00078463          	beqz	a5,80001c68 <prvUnlockQueue+0x3c>
    80001c64:	0d0020ef          	jal	ra,80003d34 <vTaskMissedYield>
    80001c68:	00813783          	ld	a5,8(sp)
    80001c6c:	0907b783          	ld	a5,144(a5)
    80001c70:	fff78713          	addi	a4,a5,-1
    80001c74:	00813783          	ld	a5,8(sp)
    80001c78:	08e7b823          	sd	a4,144(a5)
    80001c7c:	00813783          	ld	a5,8(sp)
    80001c80:	0907b783          	ld	a5,144(a5)
    80001c84:	faf04ee3          	bgtz	a5,80001c40 <prvUnlockQueue+0x14>
    80001c88:	0080006f          	j	80001c90 <prvUnlockQueue+0x64>
    80001c8c:	00000013          	nop
    80001c90:	00813783          	ld	a5,8(sp)
    80001c94:	fff00713          	li	a4,-1
    80001c98:	08e7b823          	sd	a4,144(a5)
    80001c9c:	49d020ef          	jal	ra,80004938 <vTaskExitCritical>
    80001ca0:	459020ef          	jal	ra,800048f8 <vTaskEnterCritical>
    80001ca4:	0400006f          	j	80001ce4 <prvUnlockQueue+0xb8>
    80001ca8:	00813783          	ld	a5,8(sp)
    80001cac:	0207b783          	ld	a5,32(a5)
    80001cb0:	04078263          	beqz	a5,80001cf4 <prvUnlockQueue+0xc8>
    80001cb4:	00813783          	ld	a5,8(sp)
    80001cb8:	02078793          	addi	a5,a5,32
    80001cbc:	00078513          	mv	a0,a5
    80001cc0:	4b9010ef          	jal	ra,80003978 <xTaskRemoveFromEventList>
    80001cc4:	00050793          	mv	a5,a0
    80001cc8:	00078463          	beqz	a5,80001cd0 <prvUnlockQueue+0xa4>
    80001ccc:	068020ef          	jal	ra,80003d34 <vTaskMissedYield>
    80001cd0:	00813783          	ld	a5,8(sp)
    80001cd4:	0887b783          	ld	a5,136(a5)
    80001cd8:	fff78713          	addi	a4,a5,-1
    80001cdc:	00813783          	ld	a5,8(sp)
    80001ce0:	08e7b423          	sd	a4,136(a5)
    80001ce4:	00813783          	ld	a5,8(sp)
    80001ce8:	0887b783          	ld	a5,136(a5)
    80001cec:	faf04ee3          	bgtz	a5,80001ca8 <prvUnlockQueue+0x7c>
    80001cf0:	0080006f          	j	80001cf8 <prvUnlockQueue+0xcc>
    80001cf4:	00000013          	nop
    80001cf8:	00813783          	ld	a5,8(sp)
    80001cfc:	fff00713          	li	a4,-1
    80001d00:	08e7b423          	sd	a4,136(a5)
    80001d04:	435020ef          	jal	ra,80004938 <vTaskExitCritical>
    80001d08:	00000013          	nop
    80001d0c:	01813083          	ld	ra,24(sp)
    80001d10:	02010113          	addi	sp,sp,32
    80001d14:	00008067          	ret

0000000080001d18 <prvIsQueueEmpty>:
    80001d18:	fd010113          	addi	sp,sp,-48
    80001d1c:	02113423          	sd	ra,40(sp)
    80001d20:	00a13423          	sd	a0,8(sp)
    80001d24:	3d5020ef          	jal	ra,800048f8 <vTaskEnterCritical>
    80001d28:	00813783          	ld	a5,8(sp)
    80001d2c:	0707b783          	ld	a5,112(a5)
    80001d30:	00079863          	bnez	a5,80001d40 <prvIsQueueEmpty+0x28>
    80001d34:	00100793          	li	a5,1
    80001d38:	00f13c23          	sd	a5,24(sp)
    80001d3c:	0080006f          	j	80001d44 <prvIsQueueEmpty+0x2c>
    80001d40:	00013c23          	sd	zero,24(sp)
    80001d44:	3f5020ef          	jal	ra,80004938 <vTaskExitCritical>
    80001d48:	01813783          	ld	a5,24(sp)
    80001d4c:	00078513          	mv	a0,a5
    80001d50:	02813083          	ld	ra,40(sp)
    80001d54:	03010113          	addi	sp,sp,48
    80001d58:	00008067          	ret

0000000080001d5c <xQueueIsQueueEmptyFromISR>:
    80001d5c:	fe010113          	addi	sp,sp,-32
    80001d60:	00a13423          	sd	a0,8(sp)
    80001d64:	00813783          	ld	a5,8(sp)
    80001d68:	00079663          	bnez	a5,80001d74 <xQueueIsQueueEmptyFromISR+0x18>
    80001d6c:	30047073          	csrci	mstatus,8
    80001d70:	0000006f          	j	80001d70 <xQueueIsQueueEmptyFromISR+0x14>
    80001d74:	00813783          	ld	a5,8(sp)
    80001d78:	0707b783          	ld	a5,112(a5)
    80001d7c:	00079863          	bnez	a5,80001d8c <xQueueIsQueueEmptyFromISR+0x30>
    80001d80:	00100793          	li	a5,1
    80001d84:	00f13c23          	sd	a5,24(sp)
    80001d88:	0080006f          	j	80001d90 <xQueueIsQueueEmptyFromISR+0x34>
    80001d8c:	00013c23          	sd	zero,24(sp)
    80001d90:	01813783          	ld	a5,24(sp)
    80001d94:	00078513          	mv	a0,a5
    80001d98:	02010113          	addi	sp,sp,32
    80001d9c:	00008067          	ret

0000000080001da0 <prvIsQueueFull>:
    80001da0:	fd010113          	addi	sp,sp,-48
    80001da4:	02113423          	sd	ra,40(sp)
    80001da8:	00a13423          	sd	a0,8(sp)
    80001dac:	34d020ef          	jal	ra,800048f8 <vTaskEnterCritical>
    80001db0:	00813783          	ld	a5,8(sp)
    80001db4:	0707b703          	ld	a4,112(a5)
    80001db8:	00813783          	ld	a5,8(sp)
    80001dbc:	0787b783          	ld	a5,120(a5)
    80001dc0:	00f71863          	bne	a4,a5,80001dd0 <prvIsQueueFull+0x30>
    80001dc4:	00100793          	li	a5,1
    80001dc8:	00f13c23          	sd	a5,24(sp)
    80001dcc:	0080006f          	j	80001dd4 <prvIsQueueFull+0x34>
    80001dd0:	00013c23          	sd	zero,24(sp)
    80001dd4:	365020ef          	jal	ra,80004938 <vTaskExitCritical>
    80001dd8:	01813783          	ld	a5,24(sp)
    80001ddc:	00078513          	mv	a0,a5
    80001de0:	02813083          	ld	ra,40(sp)
    80001de4:	03010113          	addi	sp,sp,48
    80001de8:	00008067          	ret

0000000080001dec <xQueueIsQueueFullFromISR>:
    80001dec:	fe010113          	addi	sp,sp,-32
    80001df0:	00a13423          	sd	a0,8(sp)
    80001df4:	00813783          	ld	a5,8(sp)
    80001df8:	00079663          	bnez	a5,80001e04 <xQueueIsQueueFullFromISR+0x18>
    80001dfc:	30047073          	csrci	mstatus,8
    80001e00:	0000006f          	j	80001e00 <xQueueIsQueueFullFromISR+0x14>
    80001e04:	00813783          	ld	a5,8(sp)
    80001e08:	0707b703          	ld	a4,112(a5)
    80001e0c:	00813783          	ld	a5,8(sp)
    80001e10:	0787b783          	ld	a5,120(a5)
    80001e14:	00f71863          	bne	a4,a5,80001e24 <xQueueIsQueueFullFromISR+0x38>
    80001e18:	00100793          	li	a5,1
    80001e1c:	00f13c23          	sd	a5,24(sp)
    80001e20:	0080006f          	j	80001e28 <xQueueIsQueueFullFromISR+0x3c>
    80001e24:	00013c23          	sd	zero,24(sp)
    80001e28:	01813783          	ld	a5,24(sp)
    80001e2c:	00078513          	mv	a0,a5
    80001e30:	02010113          	addi	sp,sp,32
    80001e34:	00008067          	ret

0000000080001e38 <vQueueAddToRegistry>:
    80001e38:	fe010113          	addi	sp,sp,-32
    80001e3c:	00a13423          	sd	a0,8(sp)
    80001e40:	00b13023          	sd	a1,0(sp)
    80001e44:	00013c23          	sd	zero,24(sp)
    80001e48:	0680006f          	j	80001eb0 <vQueueAddToRegistry+0x78>
    80001e4c:	00020717          	auipc	a4,0x20
    80001e50:	22c70713          	addi	a4,a4,556 # 80022078 <xQueueRegistry>
    80001e54:	01813783          	ld	a5,24(sp)
    80001e58:	00479793          	slli	a5,a5,0x4
    80001e5c:	00f707b3          	add	a5,a4,a5
    80001e60:	0007b783          	ld	a5,0(a5)
    80001e64:	04079063          	bnez	a5,80001ea4 <vQueueAddToRegistry+0x6c>
    80001e68:	00020717          	auipc	a4,0x20
    80001e6c:	21070713          	addi	a4,a4,528 # 80022078 <xQueueRegistry>
    80001e70:	01813783          	ld	a5,24(sp)
    80001e74:	00479793          	slli	a5,a5,0x4
    80001e78:	00f707b3          	add	a5,a4,a5
    80001e7c:	00013703          	ld	a4,0(sp)
    80001e80:	00e7b023          	sd	a4,0(a5)
    80001e84:	00020717          	auipc	a4,0x20
    80001e88:	1f470713          	addi	a4,a4,500 # 80022078 <xQueueRegistry>
    80001e8c:	01813783          	ld	a5,24(sp)
    80001e90:	00479793          	slli	a5,a5,0x4
    80001e94:	00f707b3          	add	a5,a4,a5
    80001e98:	00813703          	ld	a4,8(sp)
    80001e9c:	00e7b423          	sd	a4,8(a5)
    80001ea0:	0200006f          	j	80001ec0 <vQueueAddToRegistry+0x88>
    80001ea4:	01813783          	ld	a5,24(sp)
    80001ea8:	00178793          	addi	a5,a5,1
    80001eac:	00f13c23          	sd	a5,24(sp)
    80001eb0:	01813703          	ld	a4,24(sp)
    80001eb4:	00700793          	li	a5,7
    80001eb8:	f8e7fae3          	bgeu	a5,a4,80001e4c <vQueueAddToRegistry+0x14>
    80001ebc:	00000013          	nop
    80001ec0:	00000013          	nop
    80001ec4:	02010113          	addi	sp,sp,32
    80001ec8:	00008067          	ret

0000000080001ecc <vQueueUnregisterQueue>:
    80001ecc:	fe010113          	addi	sp,sp,-32
    80001ed0:	00a13423          	sd	a0,8(sp)
    80001ed4:	00013c23          	sd	zero,24(sp)
    80001ed8:	04c0006f          	j	80001f24 <vQueueUnregisterQueue+0x58>
    80001edc:	00020717          	auipc	a4,0x20
    80001ee0:	19c70713          	addi	a4,a4,412 # 80022078 <xQueueRegistry>
    80001ee4:	01813783          	ld	a5,24(sp)
    80001ee8:	00479793          	slli	a5,a5,0x4
    80001eec:	00f707b3          	add	a5,a4,a5
    80001ef0:	0087b783          	ld	a5,8(a5)
    80001ef4:	00813703          	ld	a4,8(sp)
    80001ef8:	02f71063          	bne	a4,a5,80001f18 <vQueueUnregisterQueue+0x4c>
    80001efc:	00020717          	auipc	a4,0x20
    80001f00:	17c70713          	addi	a4,a4,380 # 80022078 <xQueueRegistry>
    80001f04:	01813783          	ld	a5,24(sp)
    80001f08:	00479793          	slli	a5,a5,0x4
    80001f0c:	00f707b3          	add	a5,a4,a5
    80001f10:	0007b023          	sd	zero,0(a5)
    80001f14:	0200006f          	j	80001f34 <vQueueUnregisterQueue+0x68>
    80001f18:	01813783          	ld	a5,24(sp)
    80001f1c:	00178793          	addi	a5,a5,1
    80001f20:	00f13c23          	sd	a5,24(sp)
    80001f24:	01813703          	ld	a4,24(sp)
    80001f28:	00700793          	li	a5,7
    80001f2c:	fae7f8e3          	bgeu	a5,a4,80001edc <vQueueUnregisterQueue+0x10>
    80001f30:	00000013          	nop
    80001f34:	00000013          	nop
    80001f38:	02010113          	addi	sp,sp,32
    80001f3c:	00008067          	ret

0000000080001f40 <vQueueWaitForMessageRestricted>:
    80001f40:	fc010113          	addi	sp,sp,-64
    80001f44:	02113c23          	sd	ra,56(sp)
    80001f48:	00a13c23          	sd	a0,24(sp)
    80001f4c:	00058793          	mv	a5,a1
    80001f50:	00c13423          	sd	a2,8(sp)
    80001f54:	00f12a23          	sw	a5,20(sp)
    80001f58:	01813783          	ld	a5,24(sp)
    80001f5c:	02f13423          	sd	a5,40(sp)
    80001f60:	199020ef          	jal	ra,800048f8 <vTaskEnterCritical>
    80001f64:	02813783          	ld	a5,40(sp)
    80001f68:	0887b703          	ld	a4,136(a5)
    80001f6c:	fff00793          	li	a5,-1
    80001f70:	00f71663          	bne	a4,a5,80001f7c <vQueueWaitForMessageRestricted+0x3c>
    80001f74:	02813783          	ld	a5,40(sp)
    80001f78:	0807b423          	sd	zero,136(a5)
    80001f7c:	02813783          	ld	a5,40(sp)
    80001f80:	0907b703          	ld	a4,144(a5)
    80001f84:	fff00793          	li	a5,-1
    80001f88:	00f71663          	bne	a4,a5,80001f94 <vQueueWaitForMessageRestricted+0x54>
    80001f8c:	02813783          	ld	a5,40(sp)
    80001f90:	0807b823          	sd	zero,144(a5)
    80001f94:	1a5020ef          	jal	ra,80004938 <vTaskExitCritical>
    80001f98:	02813783          	ld	a5,40(sp)
    80001f9c:	0707b783          	ld	a5,112(a5)
    80001fa0:	02079063          	bnez	a5,80001fc0 <vQueueWaitForMessageRestricted+0x80>
    80001fa4:	02813783          	ld	a5,40(sp)
    80001fa8:	04878793          	addi	a5,a5,72
    80001fac:	01412703          	lw	a4,20(sp)
    80001fb0:	00813603          	ld	a2,8(sp)
    80001fb4:	00070593          	mv	a1,a4
    80001fb8:	00078513          	mv	a0,a5
    80001fbc:	0f9010ef          	jal	ra,800038b4 <vTaskPlaceOnEventListRestricted>
    80001fc0:	02813503          	ld	a0,40(sp)
    80001fc4:	c69ff0ef          	jal	ra,80001c2c <prvUnlockQueue>
    80001fc8:	00000013          	nop
    80001fcc:	03813083          	ld	ra,56(sp)
    80001fd0:	04010113          	addi	sp,sp,64
    80001fd4:	00008067          	ret

0000000080001fd8 <xTaskGenericCreate>:
    80001fd8:	f9010113          	addi	sp,sp,-112
    80001fdc:	06113423          	sd	ra,104(sp)
    80001fe0:	02a13c23          	sd	a0,56(sp)
    80001fe4:	02b13823          	sd	a1,48(sp)
    80001fe8:	02d13023          	sd	a3,32(sp)
    80001fec:	00e13c23          	sd	a4,24(sp)
    80001ff0:	00f13823          	sd	a5,16(sp)
    80001ff4:	01013423          	sd	a6,8(sp)
    80001ff8:	01113023          	sd	a7,0(sp)
    80001ffc:	00060793          	mv	a5,a2
    80002000:	02f11723          	sh	a5,46(sp)
    80002004:	03813783          	ld	a5,56(sp)
    80002008:	00079663          	bnez	a5,80002014 <xTaskGenericCreate+0x3c>
    8000200c:	30047073          	csrci	mstatus,8
    80002010:	0000006f          	j	80002010 <xTaskGenericCreate+0x38>
    80002014:	01813703          	ld	a4,24(sp)
    80002018:	00400793          	li	a5,4
    8000201c:	00e7f663          	bgeu	a5,a4,80002028 <xTaskGenericCreate+0x50>
    80002020:	30047073          	csrci	mstatus,8
    80002024:	0000006f          	j	80002024 <xTaskGenericCreate+0x4c>
    80002028:	02e15783          	lhu	a5,46(sp)
    8000202c:	00813583          	ld	a1,8(sp)
    80002030:	00078513          	mv	a0,a5
    80002034:	144020ef          	jal	ra,80004178 <prvAllocateTCBAndStack>
    80002038:	04a13823          	sd	a0,80(sp)
    8000203c:	05013783          	ld	a5,80(sp)
    80002040:	1c078263          	beqz	a5,80002204 <xTaskGenericCreate+0x22c>
    80002044:	05013783          	ld	a5,80(sp)
    80002048:	0607b703          	ld	a4,96(a5)
    8000204c:	02e15783          	lhu	a5,46(sp)
    80002050:	00379793          	slli	a5,a5,0x3
    80002054:	ff878793          	addi	a5,a5,-8
    80002058:	00f707b3          	add	a5,a4,a5
    8000205c:	04f13423          	sd	a5,72(sp)
    80002060:	04813783          	ld	a5,72(sp)
    80002064:	ff87f793          	andi	a5,a5,-8
    80002068:	04f13423          	sd	a5,72(sp)
    8000206c:	04813783          	ld	a5,72(sp)
    80002070:	0077f793          	andi	a5,a5,7
    80002074:	00078663          	beqz	a5,80002080 <xTaskGenericCreate+0xa8>
    80002078:	30047073          	csrci	mstatus,8
    8000207c:	0000006f          	j	8000207c <xTaskGenericCreate+0xa4>
    80002080:	02e15783          	lhu	a5,46(sp)
    80002084:	00078713          	mv	a4,a5
    80002088:	00013683          	ld	a3,0(sp)
    8000208c:	01813603          	ld	a2,24(sp)
    80002090:	03013583          	ld	a1,48(sp)
    80002094:	05013503          	ld	a0,80(sp)
    80002098:	555010ef          	jal	ra,80003dec <prvInitialiseTCBVariables>
    8000209c:	02013603          	ld	a2,32(sp)
    800020a0:	03813583          	ld	a1,56(sp)
    800020a4:	04813503          	ld	a0,72(sp)
    800020a8:	eb8fe0ef          	jal	ra,80000760 <pxPortInitialiseStack>
    800020ac:	00050713          	mv	a4,a0
    800020b0:	05013783          	ld	a5,80(sp)
    800020b4:	00e7b023          	sd	a4,0(a5)
    800020b8:	01013783          	ld	a5,16(sp)
    800020bc:	00078863          	beqz	a5,800020cc <xTaskGenericCreate+0xf4>
    800020c0:	01013783          	ld	a5,16(sp)
    800020c4:	05013703          	ld	a4,80(sp)
    800020c8:	00e7b023          	sd	a4,0(a5)
    800020cc:	02d020ef          	jal	ra,800048f8 <vTaskEnterCritical>
    800020d0:	00020797          	auipc	a5,0x20
    800020d4:	1d078793          	addi	a5,a5,464 # 800222a0 <uxCurrentNumberOfTasks>
    800020d8:	0007b783          	ld	a5,0(a5)
    800020dc:	00178713          	addi	a4,a5,1
    800020e0:	00020797          	auipc	a5,0x20
    800020e4:	1c078793          	addi	a5,a5,448 # 800222a0 <uxCurrentNumberOfTasks>
    800020e8:	00e7b023          	sd	a4,0(a5)
    800020ec:	00020797          	auipc	a5,0x20
    800020f0:	cd478793          	addi	a5,a5,-812 # 80021dc0 <pxCurrentTCB>
    800020f4:	0007b783          	ld	a5,0(a5)
    800020f8:	02079863          	bnez	a5,80002128 <xTaskGenericCreate+0x150>
    800020fc:	00020797          	auipc	a5,0x20
    80002100:	cc478793          	addi	a5,a5,-828 # 80021dc0 <pxCurrentTCB>
    80002104:	05013703          	ld	a4,80(sp)
    80002108:	00e7b023          	sd	a4,0(a5)
    8000210c:	00020797          	auipc	a5,0x20
    80002110:	19478793          	addi	a5,a5,404 # 800222a0 <uxCurrentNumberOfTasks>
    80002114:	0007b703          	ld	a4,0(a5)
    80002118:	00100793          	li	a5,1
    8000211c:	04f71263          	bne	a4,a5,80002160 <xTaskGenericCreate+0x188>
    80002120:	601010ef          	jal	ra,80003f20 <prvInitialiseTaskLists>
    80002124:	03c0006f          	j	80002160 <xTaskGenericCreate+0x188>
    80002128:	00020797          	auipc	a5,0x20
    8000212c:	19078793          	addi	a5,a5,400 # 800222b8 <xSchedulerRunning>
    80002130:	0007b783          	ld	a5,0(a5)
    80002134:	02079663          	bnez	a5,80002160 <xTaskGenericCreate+0x188>
    80002138:	00020797          	auipc	a5,0x20
    8000213c:	c8878793          	addi	a5,a5,-888 # 80021dc0 <pxCurrentTCB>
    80002140:	0007b783          	ld	a5,0(a5)
    80002144:	0587b783          	ld	a5,88(a5)
    80002148:	01813703          	ld	a4,24(sp)
    8000214c:	00f76a63          	bltu	a4,a5,80002160 <xTaskGenericCreate+0x188>
    80002150:	00020797          	auipc	a5,0x20
    80002154:	c7078793          	addi	a5,a5,-912 # 80021dc0 <pxCurrentTCB>
    80002158:	05013703          	ld	a4,80(sp)
    8000215c:	00e7b023          	sd	a4,0(a5)
    80002160:	00020797          	auipc	a5,0x20
    80002164:	17878793          	addi	a5,a5,376 # 800222d8 <uxTaskNumber>
    80002168:	0007b783          	ld	a5,0(a5)
    8000216c:	00178713          	addi	a4,a5,1
    80002170:	00020797          	auipc	a5,0x20
    80002174:	16878793          	addi	a5,a5,360 # 800222d8 <uxTaskNumber>
    80002178:	00e7b023          	sd	a4,0(a5)
    8000217c:	00020797          	auipc	a5,0x20
    80002180:	15c78793          	addi	a5,a5,348 # 800222d8 <uxTaskNumber>
    80002184:	0007b703          	ld	a4,0(a5)
    80002188:	05013783          	ld	a5,80(sp)
    8000218c:	08e7b023          	sd	a4,128(a5)
    80002190:	05013783          	ld	a5,80(sp)
    80002194:	0587b703          	ld	a4,88(a5)
    80002198:	00020797          	auipc	a5,0x20
    8000219c:	11878793          	addi	a5,a5,280 # 800222b0 <uxTopReadyPriority>
    800021a0:	0007b783          	ld	a5,0(a5)
    800021a4:	00e7fc63          	bgeu	a5,a4,800021bc <xTaskGenericCreate+0x1e4>
    800021a8:	05013783          	ld	a5,80(sp)
    800021ac:	0587b703          	ld	a4,88(a5)
    800021b0:	00020797          	auipc	a5,0x20
    800021b4:	10078793          	addi	a5,a5,256 # 800222b0 <uxTopReadyPriority>
    800021b8:	00e7b023          	sd	a4,0(a5)
    800021bc:	05013783          	ld	a5,80(sp)
    800021c0:	0587b703          	ld	a4,88(a5)
    800021c4:	00070793          	mv	a5,a4
    800021c8:	00279793          	slli	a5,a5,0x2
    800021cc:	00e787b3          	add	a5,a5,a4
    800021d0:	00379793          	slli	a5,a5,0x3
    800021d4:	00020717          	auipc	a4,0x20
    800021d8:	f2470713          	addi	a4,a4,-220 # 800220f8 <pxReadyTasksLists>
    800021dc:	00e78733          	add	a4,a5,a4
    800021e0:	05013783          	ld	a5,80(sp)
    800021e4:	00878793          	addi	a5,a5,8
    800021e8:	00078593          	mv	a1,a5
    800021ec:	00070513          	mv	a0,a4
    800021f0:	e98fe0ef          	jal	ra,80000888 <vListInsertEnd>
    800021f4:	00100793          	li	a5,1
    800021f8:	04f13c23          	sd	a5,88(sp)
    800021fc:	73c020ef          	jal	ra,80004938 <vTaskExitCritical>
    80002200:	00c0006f          	j	8000220c <xTaskGenericCreate+0x234>
    80002204:	fff00793          	li	a5,-1
    80002208:	04f13c23          	sd	a5,88(sp)
    8000220c:	05813703          	ld	a4,88(sp)
    80002210:	00100793          	li	a5,1
    80002214:	02f71863          	bne	a4,a5,80002244 <xTaskGenericCreate+0x26c>
    80002218:	00020797          	auipc	a5,0x20
    8000221c:	0a078793          	addi	a5,a5,160 # 800222b8 <xSchedulerRunning>
    80002220:	0007b783          	ld	a5,0(a5)
    80002224:	02078063          	beqz	a5,80002244 <xTaskGenericCreate+0x26c>
    80002228:	00020797          	auipc	a5,0x20
    8000222c:	b9878793          	addi	a5,a5,-1128 # 80021dc0 <pxCurrentTCB>
    80002230:	0007b783          	ld	a5,0(a5)
    80002234:	0587b783          	ld	a5,88(a5)
    80002238:	01813703          	ld	a4,24(sp)
    8000223c:	00e7f463          	bgeu	a5,a4,80002244 <xTaskGenericCreate+0x26c>
    80002240:	b10fe0ef          	jal	ra,80000550 <vPortYield>
    80002244:	05813783          	ld	a5,88(sp)
    80002248:	00078513          	mv	a0,a5
    8000224c:	06813083          	ld	ra,104(sp)
    80002250:	07010113          	addi	sp,sp,112
    80002254:	00008067          	ret

0000000080002258 <vTaskDelete>:
    80002258:	fd010113          	addi	sp,sp,-48
    8000225c:	02113423          	sd	ra,40(sp)
    80002260:	00a13423          	sd	a0,8(sp)
    80002264:	694020ef          	jal	ra,800048f8 <vTaskEnterCritical>
    80002268:	00813783          	ld	a5,8(sp)
    8000226c:	00079a63          	bnez	a5,80002280 <vTaskDelete+0x28>
    80002270:	00020797          	auipc	a5,0x20
    80002274:	b5078793          	addi	a5,a5,-1200 # 80021dc0 <pxCurrentTCB>
    80002278:	0007b783          	ld	a5,0(a5)
    8000227c:	0080006f          	j	80002284 <vTaskDelete+0x2c>
    80002280:	00813783          	ld	a5,8(sp)
    80002284:	00f13c23          	sd	a5,24(sp)
    80002288:	01813783          	ld	a5,24(sp)
    8000228c:	00878793          	addi	a5,a5,8
    80002290:	00078513          	mv	a0,a5
    80002294:	f40fe0ef          	jal	ra,800009d4 <uxListRemove>
    80002298:	01813783          	ld	a5,24(sp)
    8000229c:	0507b783          	ld	a5,80(a5)
    800022a0:	00078a63          	beqz	a5,800022b4 <vTaskDelete+0x5c>
    800022a4:	01813783          	ld	a5,24(sp)
    800022a8:	03078793          	addi	a5,a5,48
    800022ac:	00078513          	mv	a0,a5
    800022b0:	f24fe0ef          	jal	ra,800009d4 <uxListRemove>
    800022b4:	01813783          	ld	a5,24(sp)
    800022b8:	00878793          	addi	a5,a5,8
    800022bc:	00078593          	mv	a1,a5
    800022c0:	00020517          	auipc	a0,0x20
    800022c4:	f8850513          	addi	a0,a0,-120 # 80022248 <xTasksWaitingTermination>
    800022c8:	dc0fe0ef          	jal	ra,80000888 <vListInsertEnd>
    800022cc:	00020797          	auipc	a5,0x20
    800022d0:	fa478793          	addi	a5,a5,-92 # 80022270 <uxTasksDeleted>
    800022d4:	0007b783          	ld	a5,0(a5)
    800022d8:	00178713          	addi	a4,a5,1
    800022dc:	00020797          	auipc	a5,0x20
    800022e0:	f9478793          	addi	a5,a5,-108 # 80022270 <uxTasksDeleted>
    800022e4:	00e7b023          	sd	a4,0(a5)
    800022e8:	00020797          	auipc	a5,0x20
    800022ec:	ff078793          	addi	a5,a5,-16 # 800222d8 <uxTaskNumber>
    800022f0:	0007b783          	ld	a5,0(a5)
    800022f4:	00178713          	addi	a4,a5,1
    800022f8:	00020797          	auipc	a5,0x20
    800022fc:	fe078793          	addi	a5,a5,-32 # 800222d8 <uxTaskNumber>
    80002300:	00e7b023          	sd	a4,0(a5)
    80002304:	634020ef          	jal	ra,80004938 <vTaskExitCritical>
    80002308:	00020797          	auipc	a5,0x20
    8000230c:	fb078793          	addi	a5,a5,-80 # 800222b8 <xSchedulerRunning>
    80002310:	0007b783          	ld	a5,0(a5)
    80002314:	04078263          	beqz	a5,80002358 <vTaskDelete+0x100>
    80002318:	00020797          	auipc	a5,0x20
    8000231c:	aa878793          	addi	a5,a5,-1368 # 80021dc0 <pxCurrentTCB>
    80002320:	0007b783          	ld	a5,0(a5)
    80002324:	01813703          	ld	a4,24(sp)
    80002328:	02f71263          	bne	a4,a5,8000234c <vTaskDelete+0xf4>
    8000232c:	00020797          	auipc	a5,0x20
    80002330:	fbc78793          	addi	a5,a5,-68 # 800222e8 <uxSchedulerSuspended>
    80002334:	0007b783          	ld	a5,0(a5)
    80002338:	00078663          	beqz	a5,80002344 <vTaskDelete+0xec>
    8000233c:	30047073          	csrci	mstatus,8
    80002340:	0000006f          	j	80002340 <vTaskDelete+0xe8>
    80002344:	a0cfe0ef          	jal	ra,80000550 <vPortYield>
    80002348:	0100006f          	j	80002358 <vTaskDelete+0x100>
    8000234c:	5ac020ef          	jal	ra,800048f8 <vTaskEnterCritical>
    80002350:	214020ef          	jal	ra,80004564 <prvResetNextTaskUnblockTime>
    80002354:	5e4020ef          	jal	ra,80004938 <vTaskExitCritical>
    80002358:	00000013          	nop
    8000235c:	02813083          	ld	ra,40(sp)
    80002360:	03010113          	addi	sp,sp,48
    80002364:	00008067          	ret

0000000080002368 <vTaskDelayUntil>:
    80002368:	fc010113          	addi	sp,sp,-64
    8000236c:	02113c23          	sd	ra,56(sp)
    80002370:	00a13423          	sd	a0,8(sp)
    80002374:	00058793          	mv	a5,a1
    80002378:	00f12223          	sw	a5,4(sp)
    8000237c:	02013423          	sd	zero,40(sp)
    80002380:	00813783          	ld	a5,8(sp)
    80002384:	00079663          	bnez	a5,80002390 <vTaskDelayUntil+0x28>
    80002388:	30047073          	csrci	mstatus,8
    8000238c:	0000006f          	j	8000238c <vTaskDelayUntil+0x24>
    80002390:	00412783          	lw	a5,4(sp)
    80002394:	0007879b          	sext.w	a5,a5
    80002398:	00079663          	bnez	a5,800023a4 <vTaskDelayUntil+0x3c>
    8000239c:	30047073          	csrci	mstatus,8
    800023a0:	0000006f          	j	800023a0 <vTaskDelayUntil+0x38>
    800023a4:	00020797          	auipc	a5,0x20
    800023a8:	f4478793          	addi	a5,a5,-188 # 800222e8 <uxSchedulerSuspended>
    800023ac:	0007b783          	ld	a5,0(a5)
    800023b0:	00078663          	beqz	a5,800023bc <vTaskDelayUntil+0x54>
    800023b4:	30047073          	csrci	mstatus,8
    800023b8:	0000006f          	j	800023b8 <vTaskDelayUntil+0x50>
    800023bc:	215000ef          	jal	ra,80002dd0 <vTaskSuspendAll>
    800023c0:	00020797          	auipc	a5,0x20
    800023c4:	ee878793          	addi	a5,a5,-280 # 800222a8 <xTickCount>
    800023c8:	0007a783          	lw	a5,0(a5)
    800023cc:	02f12223          	sw	a5,36(sp)
    800023d0:	00813783          	ld	a5,8(sp)
    800023d4:	0007a783          	lw	a5,0(a5)
    800023d8:	00412703          	lw	a4,4(sp)
    800023dc:	00f707bb          	addw	a5,a4,a5
    800023e0:	02f12023          	sw	a5,32(sp)
    800023e4:	00813783          	ld	a5,8(sp)
    800023e8:	0007a703          	lw	a4,0(a5)
    800023ec:	02412783          	lw	a5,36(sp)
    800023f0:	0007879b          	sext.w	a5,a5
    800023f4:	02e7fc63          	bgeu	a5,a4,8000242c <vTaskDelayUntil+0xc4>
    800023f8:	00813783          	ld	a5,8(sp)
    800023fc:	0007a703          	lw	a4,0(a5)
    80002400:	02012783          	lw	a5,32(sp)
    80002404:	0007879b          	sext.w	a5,a5
    80002408:	04e7fa63          	bgeu	a5,a4,8000245c <vTaskDelayUntil+0xf4>
    8000240c:	02012703          	lw	a4,32(sp)
    80002410:	02412783          	lw	a5,36(sp)
    80002414:	0007071b          	sext.w	a4,a4
    80002418:	0007879b          	sext.w	a5,a5
    8000241c:	04e7f063          	bgeu	a5,a4,8000245c <vTaskDelayUntil+0xf4>
    80002420:	00100793          	li	a5,1
    80002424:	02f13423          	sd	a5,40(sp)
    80002428:	0340006f          	j	8000245c <vTaskDelayUntil+0xf4>
    8000242c:	00813783          	ld	a5,8(sp)
    80002430:	0007a703          	lw	a4,0(a5)
    80002434:	02012783          	lw	a5,32(sp)
    80002438:	0007879b          	sext.w	a5,a5
    8000243c:	00e7ec63          	bltu	a5,a4,80002454 <vTaskDelayUntil+0xec>
    80002440:	02012703          	lw	a4,32(sp)
    80002444:	02412783          	lw	a5,36(sp)
    80002448:	0007071b          	sext.w	a4,a4
    8000244c:	0007879b          	sext.w	a5,a5
    80002450:	00e7f663          	bgeu	a5,a4,8000245c <vTaskDelayUntil+0xf4>
    80002454:	00100793          	li	a5,1
    80002458:	02f13423          	sd	a5,40(sp)
    8000245c:	00813783          	ld	a5,8(sp)
    80002460:	02012703          	lw	a4,32(sp)
    80002464:	00e7a023          	sw	a4,0(a5)
    80002468:	02813783          	ld	a5,40(sp)
    8000246c:	02078463          	beqz	a5,80002494 <vTaskDelayUntil+0x12c>
    80002470:	00020797          	auipc	a5,0x20
    80002474:	95078793          	addi	a5,a5,-1712 # 80021dc0 <pxCurrentTCB>
    80002478:	0007b783          	ld	a5,0(a5)
    8000247c:	00878793          	addi	a5,a5,8
    80002480:	00078513          	mv	a0,a5
    80002484:	d50fe0ef          	jal	ra,800009d4 <uxListRemove>
    80002488:	02012783          	lw	a5,32(sp)
    8000248c:	00078513          	mv	a0,a5
    80002490:	419010ef          	jal	ra,800040a8 <prvAddCurrentTaskToDelayedList>
    80002494:	161000ef          	jal	ra,80002df4 <xTaskResumeAll>
    80002498:	00a13c23          	sd	a0,24(sp)
    8000249c:	01813783          	ld	a5,24(sp)
    800024a0:	00079463          	bnez	a5,800024a8 <vTaskDelayUntil+0x140>
    800024a4:	8acfe0ef          	jal	ra,80000550 <vPortYield>
    800024a8:	00000013          	nop
    800024ac:	03813083          	ld	ra,56(sp)
    800024b0:	04010113          	addi	sp,sp,64
    800024b4:	00008067          	ret

00000000800024b8 <vTaskDelay>:
    800024b8:	fd010113          	addi	sp,sp,-48
    800024bc:	02113423          	sd	ra,40(sp)
    800024c0:	00050793          	mv	a5,a0
    800024c4:	00f12623          	sw	a5,12(sp)
    800024c8:	00013c23          	sd	zero,24(sp)
    800024cc:	00c12783          	lw	a5,12(sp)
    800024d0:	0007879b          	sext.w	a5,a5
    800024d4:	06078463          	beqz	a5,8000253c <vTaskDelay+0x84>
    800024d8:	00020797          	auipc	a5,0x20
    800024dc:	e1078793          	addi	a5,a5,-496 # 800222e8 <uxSchedulerSuspended>
    800024e0:	0007b783          	ld	a5,0(a5)
    800024e4:	00078663          	beqz	a5,800024f0 <vTaskDelay+0x38>
    800024e8:	30047073          	csrci	mstatus,8
    800024ec:	0000006f          	j	800024ec <vTaskDelay+0x34>
    800024f0:	0e1000ef          	jal	ra,80002dd0 <vTaskSuspendAll>
    800024f4:	00020797          	auipc	a5,0x20
    800024f8:	db478793          	addi	a5,a5,-588 # 800222a8 <xTickCount>
    800024fc:	0007a783          	lw	a5,0(a5)
    80002500:	0007879b          	sext.w	a5,a5
    80002504:	00c12703          	lw	a4,12(sp)
    80002508:	00f707bb          	addw	a5,a4,a5
    8000250c:	00f12a23          	sw	a5,20(sp)
    80002510:	00020797          	auipc	a5,0x20
    80002514:	8b078793          	addi	a5,a5,-1872 # 80021dc0 <pxCurrentTCB>
    80002518:	0007b783          	ld	a5,0(a5)
    8000251c:	00878793          	addi	a5,a5,8
    80002520:	00078513          	mv	a0,a5
    80002524:	cb0fe0ef          	jal	ra,800009d4 <uxListRemove>
    80002528:	01412783          	lw	a5,20(sp)
    8000252c:	00078513          	mv	a0,a5
    80002530:	379010ef          	jal	ra,800040a8 <prvAddCurrentTaskToDelayedList>
    80002534:	0c1000ef          	jal	ra,80002df4 <xTaskResumeAll>
    80002538:	00a13c23          	sd	a0,24(sp)
    8000253c:	01813783          	ld	a5,24(sp)
    80002540:	00079463          	bnez	a5,80002548 <vTaskDelay+0x90>
    80002544:	80cfe0ef          	jal	ra,80000550 <vPortYield>
    80002548:	00000013          	nop
    8000254c:	02813083          	ld	ra,40(sp)
    80002550:	03010113          	addi	sp,sp,48
    80002554:	00008067          	ret

0000000080002558 <eTaskGetState>:
    80002558:	fc010113          	addi	sp,sp,-64
    8000255c:	02113c23          	sd	ra,56(sp)
    80002560:	00a13423          	sd	a0,8(sp)
    80002564:	00813783          	ld	a5,8(sp)
    80002568:	02f13023          	sd	a5,32(sp)
    8000256c:	02013783          	ld	a5,32(sp)
    80002570:	00079663          	bnez	a5,8000257c <eTaskGetState+0x24>
    80002574:	30047073          	csrci	mstatus,8
    80002578:	0000006f          	j	80002578 <eTaskGetState+0x20>
    8000257c:	00020797          	auipc	a5,0x20
    80002580:	84478793          	addi	a5,a5,-1980 # 80021dc0 <pxCurrentTCB>
    80002584:	0007b783          	ld	a5,0(a5)
    80002588:	02013703          	ld	a4,32(sp)
    8000258c:	00f71663          	bne	a4,a5,80002598 <eTaskGetState+0x40>
    80002590:	02012623          	sw	zero,44(sp)
    80002594:	0a40006f          	j	80002638 <eTaskGetState+0xe0>
    80002598:	360020ef          	jal	ra,800048f8 <vTaskEnterCritical>
    8000259c:	02013783          	ld	a5,32(sp)
    800025a0:	0287b783          	ld	a5,40(a5)
    800025a4:	00f13c23          	sd	a5,24(sp)
    800025a8:	390020ef          	jal	ra,80004938 <vTaskExitCritical>
    800025ac:	00020797          	auipc	a5,0x20
    800025b0:	c6478793          	addi	a5,a5,-924 # 80022210 <pxDelayedTaskList>
    800025b4:	0007b783          	ld	a5,0(a5)
    800025b8:	01813703          	ld	a4,24(sp)
    800025bc:	00f70c63          	beq	a4,a5,800025d4 <eTaskGetState+0x7c>
    800025c0:	00020797          	auipc	a5,0x20
    800025c4:	c5878793          	addi	a5,a5,-936 # 80022218 <pxOverflowDelayedTaskList>
    800025c8:	0007b783          	ld	a5,0(a5)
    800025cc:	01813703          	ld	a4,24(sp)
    800025d0:	00f71863          	bne	a4,a5,800025e0 <eTaskGetState+0x88>
    800025d4:	00200793          	li	a5,2
    800025d8:	02f12623          	sw	a5,44(sp)
    800025dc:	05c0006f          	j	80002638 <eTaskGetState+0xe0>
    800025e0:	01813703          	ld	a4,24(sp)
    800025e4:	00020797          	auipc	a5,0x20
    800025e8:	c9478793          	addi	a5,a5,-876 # 80022278 <xSuspendedTaskList>
    800025ec:	02f71463          	bne	a4,a5,80002614 <eTaskGetState+0xbc>
    800025f0:	02013783          	ld	a5,32(sp)
    800025f4:	0507b783          	ld	a5,80(a5)
    800025f8:	00079863          	bnez	a5,80002608 <eTaskGetState+0xb0>
    800025fc:	00300793          	li	a5,3
    80002600:	02f12623          	sw	a5,44(sp)
    80002604:	0340006f          	j	80002638 <eTaskGetState+0xe0>
    80002608:	00200793          	li	a5,2
    8000260c:	02f12623          	sw	a5,44(sp)
    80002610:	0280006f          	j	80002638 <eTaskGetState+0xe0>
    80002614:	01813703          	ld	a4,24(sp)
    80002618:	00020797          	auipc	a5,0x20
    8000261c:	c3078793          	addi	a5,a5,-976 # 80022248 <xTasksWaitingTermination>
    80002620:	00f71863          	bne	a4,a5,80002630 <eTaskGetState+0xd8>
    80002624:	00400793          	li	a5,4
    80002628:	02f12623          	sw	a5,44(sp)
    8000262c:	00c0006f          	j	80002638 <eTaskGetState+0xe0>
    80002630:	00100793          	li	a5,1
    80002634:	02f12623          	sw	a5,44(sp)
    80002638:	02c12783          	lw	a5,44(sp)
    8000263c:	00078513          	mv	a0,a5
    80002640:	03813083          	ld	ra,56(sp)
    80002644:	04010113          	addi	sp,sp,64
    80002648:	00008067          	ret

000000008000264c <uxTaskPriorityGet>:
    8000264c:	fd010113          	addi	sp,sp,-48
    80002650:	02113423          	sd	ra,40(sp)
    80002654:	00a13423          	sd	a0,8(sp)
    80002658:	2a0020ef          	jal	ra,800048f8 <vTaskEnterCritical>
    8000265c:	00813783          	ld	a5,8(sp)
    80002660:	00079a63          	bnez	a5,80002674 <uxTaskPriorityGet+0x28>
    80002664:	0001f797          	auipc	a5,0x1f
    80002668:	75c78793          	addi	a5,a5,1884 # 80021dc0 <pxCurrentTCB>
    8000266c:	0007b783          	ld	a5,0(a5)
    80002670:	0080006f          	j	80002678 <uxTaskPriorityGet+0x2c>
    80002674:	00813783          	ld	a5,8(sp)
    80002678:	00f13c23          	sd	a5,24(sp)
    8000267c:	01813783          	ld	a5,24(sp)
    80002680:	0587b783          	ld	a5,88(a5)
    80002684:	00f13823          	sd	a5,16(sp)
    80002688:	2b0020ef          	jal	ra,80004938 <vTaskExitCritical>
    8000268c:	01013783          	ld	a5,16(sp)
    80002690:	00078513          	mv	a0,a5
    80002694:	02813083          	ld	ra,40(sp)
    80002698:	03010113          	addi	sp,sp,48
    8000269c:	00008067          	ret

00000000800026a0 <uxTaskPriorityGetFromISR>:
    800026a0:	fc010113          	addi	sp,sp,-64
    800026a4:	02113c23          	sd	ra,56(sp)
    800026a8:	00a13423          	sd	a0,8(sp)
    800026ac:	894fe0ef          	jal	ra,80000740 <vPortSetInterruptMask>
    800026b0:	00050793          	mv	a5,a0
    800026b4:	02f13423          	sd	a5,40(sp)
    800026b8:	00813783          	ld	a5,8(sp)
    800026bc:	00079a63          	bnez	a5,800026d0 <uxTaskPriorityGetFromISR+0x30>
    800026c0:	0001f797          	auipc	a5,0x1f
    800026c4:	70078793          	addi	a5,a5,1792 # 80021dc0 <pxCurrentTCB>
    800026c8:	0007b783          	ld	a5,0(a5)
    800026cc:	0080006f          	j	800026d4 <uxTaskPriorityGetFromISR+0x34>
    800026d0:	00813783          	ld	a5,8(sp)
    800026d4:	02f13023          	sd	a5,32(sp)
    800026d8:	02013783          	ld	a5,32(sp)
    800026dc:	0587b783          	ld	a5,88(a5)
    800026e0:	00f13c23          	sd	a5,24(sp)
    800026e4:	02813783          	ld	a5,40(sp)
    800026e8:	0007879b          	sext.w	a5,a5
    800026ec:	00078513          	mv	a0,a5
    800026f0:	830fe0ef          	jal	ra,80000720 <vPortClearInterruptMask>
    800026f4:	01813783          	ld	a5,24(sp)
    800026f8:	00078513          	mv	a0,a5
    800026fc:	03813083          	ld	ra,56(sp)
    80002700:	04010113          	addi	sp,sp,64
    80002704:	00008067          	ret

0000000080002708 <vTaskPrioritySet>:
    80002708:	fc010113          	addi	sp,sp,-64
    8000270c:	02113c23          	sd	ra,56(sp)
    80002710:	00a13423          	sd	a0,8(sp)
    80002714:	00b13023          	sd	a1,0(sp)
    80002718:	02013423          	sd	zero,40(sp)
    8000271c:	00013703          	ld	a4,0(sp)
    80002720:	00400793          	li	a5,4
    80002724:	00e7f663          	bgeu	a5,a4,80002730 <vTaskPrioritySet+0x28>
    80002728:	30047073          	csrci	mstatus,8
    8000272c:	0000006f          	j	8000272c <vTaskPrioritySet+0x24>
    80002730:	00013703          	ld	a4,0(sp)
    80002734:	00400793          	li	a5,4
    80002738:	00e7f663          	bgeu	a5,a4,80002744 <vTaskPrioritySet+0x3c>
    8000273c:	00400793          	li	a5,4
    80002740:	00f13023          	sd	a5,0(sp)
    80002744:	1b4020ef          	jal	ra,800048f8 <vTaskEnterCritical>
    80002748:	00813783          	ld	a5,8(sp)
    8000274c:	00079a63          	bnez	a5,80002760 <vTaskPrioritySet+0x58>
    80002750:	0001f797          	auipc	a5,0x1f
    80002754:	67078793          	addi	a5,a5,1648 # 80021dc0 <pxCurrentTCB>
    80002758:	0007b783          	ld	a5,0(a5)
    8000275c:	0080006f          	j	80002764 <vTaskPrioritySet+0x5c>
    80002760:	00813783          	ld	a5,8(sp)
    80002764:	02f13023          	sd	a5,32(sp)
    80002768:	02013783          	ld	a5,32(sp)
    8000276c:	0907b783          	ld	a5,144(a5)
    80002770:	00f13c23          	sd	a5,24(sp)
    80002774:	01813703          	ld	a4,24(sp)
    80002778:	00013783          	ld	a5,0(sp)
    8000277c:	18f70463          	beq	a4,a5,80002904 <vTaskPrioritySet+0x1fc>
    80002780:	00013703          	ld	a4,0(sp)
    80002784:	01813783          	ld	a5,24(sp)
    80002788:	02e7fe63          	bgeu	a5,a4,800027c4 <vTaskPrioritySet+0xbc>
    8000278c:	0001f797          	auipc	a5,0x1f
    80002790:	63478793          	addi	a5,a5,1588 # 80021dc0 <pxCurrentTCB>
    80002794:	0007b783          	ld	a5,0(a5)
    80002798:	02013703          	ld	a4,32(sp)
    8000279c:	04f70263          	beq	a4,a5,800027e0 <vTaskPrioritySet+0xd8>
    800027a0:	0001f797          	auipc	a5,0x1f
    800027a4:	62078793          	addi	a5,a5,1568 # 80021dc0 <pxCurrentTCB>
    800027a8:	0007b783          	ld	a5,0(a5)
    800027ac:	0587b783          	ld	a5,88(a5)
    800027b0:	00013703          	ld	a4,0(sp)
    800027b4:	02f76663          	bltu	a4,a5,800027e0 <vTaskPrioritySet+0xd8>
    800027b8:	00100793          	li	a5,1
    800027bc:	02f13423          	sd	a5,40(sp)
    800027c0:	0200006f          	j	800027e0 <vTaskPrioritySet+0xd8>
    800027c4:	0001f797          	auipc	a5,0x1f
    800027c8:	5fc78793          	addi	a5,a5,1532 # 80021dc0 <pxCurrentTCB>
    800027cc:	0007b783          	ld	a5,0(a5)
    800027d0:	02013703          	ld	a4,32(sp)
    800027d4:	00f71663          	bne	a4,a5,800027e0 <vTaskPrioritySet+0xd8>
    800027d8:	00100793          	li	a5,1
    800027dc:	02f13423          	sd	a5,40(sp)
    800027e0:	02013783          	ld	a5,32(sp)
    800027e4:	0587b783          	ld	a5,88(a5)
    800027e8:	00f13823          	sd	a5,16(sp)
    800027ec:	02013783          	ld	a5,32(sp)
    800027f0:	0907b703          	ld	a4,144(a5)
    800027f4:	02013783          	ld	a5,32(sp)
    800027f8:	0587b783          	ld	a5,88(a5)
    800027fc:	00f71863          	bne	a4,a5,8000280c <vTaskPrioritySet+0x104>
    80002800:	02013783          	ld	a5,32(sp)
    80002804:	00013703          	ld	a4,0(sp)
    80002808:	04e7bc23          	sd	a4,88(a5)
    8000280c:	02013783          	ld	a5,32(sp)
    80002810:	00013703          	ld	a4,0(sp)
    80002814:	08e7b823          	sd	a4,144(a5)
    80002818:	02013783          	ld	a5,32(sp)
    8000281c:	0307a783          	lw	a5,48(a5)
    80002820:	0007879b          	sext.w	a5,a5
    80002824:	0207c063          	bltz	a5,80002844 <vTaskPrioritySet+0x13c>
    80002828:	00013783          	ld	a5,0(sp)
    8000282c:	0007879b          	sext.w	a5,a5
    80002830:	00500713          	li	a4,5
    80002834:	40f707bb          	subw	a5,a4,a5
    80002838:	0007871b          	sext.w	a4,a5
    8000283c:	02013783          	ld	a5,32(sp)
    80002840:	02e7a823          	sw	a4,48(a5)
    80002844:	02013783          	ld	a5,32(sp)
    80002848:	0287b683          	ld	a3,40(a5)
    8000284c:	01013703          	ld	a4,16(sp)
    80002850:	00070793          	mv	a5,a4
    80002854:	00279793          	slli	a5,a5,0x2
    80002858:	00e787b3          	add	a5,a5,a4
    8000285c:	00379793          	slli	a5,a5,0x3
    80002860:	00020717          	auipc	a4,0x20
    80002864:	89870713          	addi	a4,a4,-1896 # 800220f8 <pxReadyTasksLists>
    80002868:	00e787b3          	add	a5,a5,a4
    8000286c:	00f69663          	bne	a3,a5,80002878 <vTaskPrioritySet+0x170>
    80002870:	00100793          	li	a5,1
    80002874:	0080006f          	j	8000287c <vTaskPrioritySet+0x174>
    80002878:	00000793          	li	a5,0
    8000287c:	06078c63          	beqz	a5,800028f4 <vTaskPrioritySet+0x1ec>
    80002880:	02013783          	ld	a5,32(sp)
    80002884:	00878793          	addi	a5,a5,8
    80002888:	00078513          	mv	a0,a5
    8000288c:	948fe0ef          	jal	ra,800009d4 <uxListRemove>
    80002890:	02013783          	ld	a5,32(sp)
    80002894:	0587b703          	ld	a4,88(a5)
    80002898:	00020797          	auipc	a5,0x20
    8000289c:	a1878793          	addi	a5,a5,-1512 # 800222b0 <uxTopReadyPriority>
    800028a0:	0007b783          	ld	a5,0(a5)
    800028a4:	00e7fc63          	bgeu	a5,a4,800028bc <vTaskPrioritySet+0x1b4>
    800028a8:	02013783          	ld	a5,32(sp)
    800028ac:	0587b703          	ld	a4,88(a5)
    800028b0:	00020797          	auipc	a5,0x20
    800028b4:	a0078793          	addi	a5,a5,-1536 # 800222b0 <uxTopReadyPriority>
    800028b8:	00e7b023          	sd	a4,0(a5)
    800028bc:	02013783          	ld	a5,32(sp)
    800028c0:	0587b703          	ld	a4,88(a5)
    800028c4:	00070793          	mv	a5,a4
    800028c8:	00279793          	slli	a5,a5,0x2
    800028cc:	00e787b3          	add	a5,a5,a4
    800028d0:	00379793          	slli	a5,a5,0x3
    800028d4:	00020717          	auipc	a4,0x20
    800028d8:	82470713          	addi	a4,a4,-2012 # 800220f8 <pxReadyTasksLists>
    800028dc:	00e78733          	add	a4,a5,a4
    800028e0:	02013783          	ld	a5,32(sp)
    800028e4:	00878793          	addi	a5,a5,8
    800028e8:	00078593          	mv	a1,a5
    800028ec:	00070513          	mv	a0,a4
    800028f0:	f99fd0ef          	jal	ra,80000888 <vListInsertEnd>
    800028f4:	02813703          	ld	a4,40(sp)
    800028f8:	00100793          	li	a5,1
    800028fc:	00f71463          	bne	a4,a5,80002904 <vTaskPrioritySet+0x1fc>
    80002900:	c51fd0ef          	jal	ra,80000550 <vPortYield>
    80002904:	034020ef          	jal	ra,80004938 <vTaskExitCritical>
    80002908:	00000013          	nop
    8000290c:	03813083          	ld	ra,56(sp)
    80002910:	04010113          	addi	sp,sp,64
    80002914:	00008067          	ret

0000000080002918 <vTaskSuspend>:
    80002918:	fd010113          	addi	sp,sp,-48
    8000291c:	02113423          	sd	ra,40(sp)
    80002920:	00a13423          	sd	a0,8(sp)
    80002924:	7d5010ef          	jal	ra,800048f8 <vTaskEnterCritical>
    80002928:	00813783          	ld	a5,8(sp)
    8000292c:	00079a63          	bnez	a5,80002940 <vTaskSuspend+0x28>
    80002930:	0001f797          	auipc	a5,0x1f
    80002934:	49078793          	addi	a5,a5,1168 # 80021dc0 <pxCurrentTCB>
    80002938:	0007b783          	ld	a5,0(a5)
    8000293c:	0080006f          	j	80002944 <vTaskSuspend+0x2c>
    80002940:	00813783          	ld	a5,8(sp)
    80002944:	00f13c23          	sd	a5,24(sp)
    80002948:	01813783          	ld	a5,24(sp)
    8000294c:	00878793          	addi	a5,a5,8
    80002950:	00078513          	mv	a0,a5
    80002954:	880fe0ef          	jal	ra,800009d4 <uxListRemove>
    80002958:	01813783          	ld	a5,24(sp)
    8000295c:	0507b783          	ld	a5,80(a5)
    80002960:	00078a63          	beqz	a5,80002974 <vTaskSuspend+0x5c>
    80002964:	01813783          	ld	a5,24(sp)
    80002968:	03078793          	addi	a5,a5,48
    8000296c:	00078513          	mv	a0,a5
    80002970:	864fe0ef          	jal	ra,800009d4 <uxListRemove>
    80002974:	01813783          	ld	a5,24(sp)
    80002978:	00878793          	addi	a5,a5,8
    8000297c:	00078593          	mv	a1,a5
    80002980:	00020517          	auipc	a0,0x20
    80002984:	8f850513          	addi	a0,a0,-1800 # 80022278 <xSuspendedTaskList>
    80002988:	f01fd0ef          	jal	ra,80000888 <vListInsertEnd>
    8000298c:	7ad010ef          	jal	ra,80004938 <vTaskExitCritical>
    80002990:	0001f797          	auipc	a5,0x1f
    80002994:	43078793          	addi	a5,a5,1072 # 80021dc0 <pxCurrentTCB>
    80002998:	0007b783          	ld	a5,0(a5)
    8000299c:	01813703          	ld	a4,24(sp)
    800029a0:	06f71463          	bne	a4,a5,80002a08 <vTaskSuspend+0xf0>
    800029a4:	00020797          	auipc	a5,0x20
    800029a8:	91478793          	addi	a5,a5,-1772 # 800222b8 <xSchedulerRunning>
    800029ac:	0007b783          	ld	a5,0(a5)
    800029b0:	02078263          	beqz	a5,800029d4 <vTaskSuspend+0xbc>
    800029b4:	00020797          	auipc	a5,0x20
    800029b8:	93478793          	addi	a5,a5,-1740 # 800222e8 <uxSchedulerSuspended>
    800029bc:	0007b783          	ld	a5,0(a5)
    800029c0:	00078663          	beqz	a5,800029cc <vTaskSuspend+0xb4>
    800029c4:	30047073          	csrci	mstatus,8
    800029c8:	0000006f          	j	800029c8 <vTaskSuspend+0xb0>
    800029cc:	b85fd0ef          	jal	ra,80000550 <vPortYield>
    800029d0:	0540006f          	j	80002a24 <vTaskSuspend+0x10c>
    800029d4:	00020797          	auipc	a5,0x20
    800029d8:	8a478793          	addi	a5,a5,-1884 # 80022278 <xSuspendedTaskList>
    800029dc:	0007b703          	ld	a4,0(a5)
    800029e0:	00020797          	auipc	a5,0x20
    800029e4:	8c078793          	addi	a5,a5,-1856 # 800222a0 <uxCurrentNumberOfTasks>
    800029e8:	0007b783          	ld	a5,0(a5)
    800029ec:	00f71a63          	bne	a4,a5,80002a00 <vTaskSuspend+0xe8>
    800029f0:	0001f797          	auipc	a5,0x1f
    800029f4:	3d078793          	addi	a5,a5,976 # 80021dc0 <pxCurrentTCB>
    800029f8:	0007b023          	sd	zero,0(a5)
    800029fc:	0280006f          	j	80002a24 <vTaskSuspend+0x10c>
    80002a00:	315000ef          	jal	ra,80003514 <vTaskSwitchContext>
    80002a04:	0200006f          	j	80002a24 <vTaskSuspend+0x10c>
    80002a08:	00020797          	auipc	a5,0x20
    80002a0c:	8b078793          	addi	a5,a5,-1872 # 800222b8 <xSchedulerRunning>
    80002a10:	0007b783          	ld	a5,0(a5)
    80002a14:	00078863          	beqz	a5,80002a24 <vTaskSuspend+0x10c>
    80002a18:	6e1010ef          	jal	ra,800048f8 <vTaskEnterCritical>
    80002a1c:	349010ef          	jal	ra,80004564 <prvResetNextTaskUnblockTime>
    80002a20:	719010ef          	jal	ra,80004938 <vTaskExitCritical>
    80002a24:	00000013          	nop
    80002a28:	02813083          	ld	ra,40(sp)
    80002a2c:	03010113          	addi	sp,sp,48
    80002a30:	00008067          	ret

0000000080002a34 <prvTaskIsTaskSuspended>:
    80002a34:	fe010113          	addi	sp,sp,-32
    80002a38:	00a13423          	sd	a0,8(sp)
    80002a3c:	00013c23          	sd	zero,24(sp)
    80002a40:	00813783          	ld	a5,8(sp)
    80002a44:	00f13823          	sd	a5,16(sp)
    80002a48:	00813783          	ld	a5,8(sp)
    80002a4c:	00079663          	bnez	a5,80002a58 <prvTaskIsTaskSuspended+0x24>
    80002a50:	30047073          	csrci	mstatus,8
    80002a54:	0000006f          	j	80002a54 <prvTaskIsTaskSuspended+0x20>
    80002a58:	01013783          	ld	a5,16(sp)
    80002a5c:	0287b703          	ld	a4,40(a5)
    80002a60:	00020797          	auipc	a5,0x20
    80002a64:	81878793          	addi	a5,a5,-2024 # 80022278 <xSuspendedTaskList>
    80002a68:	00f71663          	bne	a4,a5,80002a74 <prvTaskIsTaskSuspended+0x40>
    80002a6c:	00100793          	li	a5,1
    80002a70:	0080006f          	j	80002a78 <prvTaskIsTaskSuspended+0x44>
    80002a74:	00000793          	li	a5,0
    80002a78:	02078e63          	beqz	a5,80002ab4 <prvTaskIsTaskSuspended+0x80>
    80002a7c:	01013783          	ld	a5,16(sp)
    80002a80:	0507b703          	ld	a4,80(a5)
    80002a84:	0001f797          	auipc	a5,0x1f
    80002a88:	79c78793          	addi	a5,a5,1948 # 80022220 <xPendingReadyList>
    80002a8c:	02f70463          	beq	a4,a5,80002ab4 <prvTaskIsTaskSuspended+0x80>
    80002a90:	01013783          	ld	a5,16(sp)
    80002a94:	0507b783          	ld	a5,80(a5)
    80002a98:	00079663          	bnez	a5,80002aa4 <prvTaskIsTaskSuspended+0x70>
    80002a9c:	00100793          	li	a5,1
    80002aa0:	0080006f          	j	80002aa8 <prvTaskIsTaskSuspended+0x74>
    80002aa4:	00000793          	li	a5,0
    80002aa8:	00078663          	beqz	a5,80002ab4 <prvTaskIsTaskSuspended+0x80>
    80002aac:	00100793          	li	a5,1
    80002ab0:	00f13c23          	sd	a5,24(sp)
    80002ab4:	01813783          	ld	a5,24(sp)
    80002ab8:	00078513          	mv	a0,a5
    80002abc:	02010113          	addi	sp,sp,32
    80002ac0:	00008067          	ret

0000000080002ac4 <vTaskResume>:
    80002ac4:	fd010113          	addi	sp,sp,-48
    80002ac8:	02113423          	sd	ra,40(sp)
    80002acc:	00a13423          	sd	a0,8(sp)
    80002ad0:	00813783          	ld	a5,8(sp)
    80002ad4:	00f13c23          	sd	a5,24(sp)
    80002ad8:	00813783          	ld	a5,8(sp)
    80002adc:	00079663          	bnez	a5,80002ae8 <vTaskResume+0x24>
    80002ae0:	30047073          	csrci	mstatus,8
    80002ae4:	0000006f          	j	80002ae4 <vTaskResume+0x20>
    80002ae8:	01813783          	ld	a5,24(sp)
    80002aec:	0c078463          	beqz	a5,80002bb4 <vTaskResume+0xf0>
    80002af0:	0001f797          	auipc	a5,0x1f
    80002af4:	2d078793          	addi	a5,a5,720 # 80021dc0 <pxCurrentTCB>
    80002af8:	0007b783          	ld	a5,0(a5)
    80002afc:	01813703          	ld	a4,24(sp)
    80002b00:	0af70a63          	beq	a4,a5,80002bb4 <vTaskResume+0xf0>
    80002b04:	5f5010ef          	jal	ra,800048f8 <vTaskEnterCritical>
    80002b08:	01813503          	ld	a0,24(sp)
    80002b0c:	f29ff0ef          	jal	ra,80002a34 <prvTaskIsTaskSuspended>
    80002b10:	00050713          	mv	a4,a0
    80002b14:	00100793          	li	a5,1
    80002b18:	08f71c63          	bne	a4,a5,80002bb0 <vTaskResume+0xec>
    80002b1c:	01813783          	ld	a5,24(sp)
    80002b20:	00878793          	addi	a5,a5,8
    80002b24:	00078513          	mv	a0,a5
    80002b28:	eadfd0ef          	jal	ra,800009d4 <uxListRemove>
    80002b2c:	01813783          	ld	a5,24(sp)
    80002b30:	0587b703          	ld	a4,88(a5)
    80002b34:	0001f797          	auipc	a5,0x1f
    80002b38:	77c78793          	addi	a5,a5,1916 # 800222b0 <uxTopReadyPriority>
    80002b3c:	0007b783          	ld	a5,0(a5)
    80002b40:	00e7fc63          	bgeu	a5,a4,80002b58 <vTaskResume+0x94>
    80002b44:	01813783          	ld	a5,24(sp)
    80002b48:	0587b703          	ld	a4,88(a5)
    80002b4c:	0001f797          	auipc	a5,0x1f
    80002b50:	76478793          	addi	a5,a5,1892 # 800222b0 <uxTopReadyPriority>
    80002b54:	00e7b023          	sd	a4,0(a5)
    80002b58:	01813783          	ld	a5,24(sp)
    80002b5c:	0587b703          	ld	a4,88(a5)
    80002b60:	00070793          	mv	a5,a4
    80002b64:	00279793          	slli	a5,a5,0x2
    80002b68:	00e787b3          	add	a5,a5,a4
    80002b6c:	00379793          	slli	a5,a5,0x3
    80002b70:	0001f717          	auipc	a4,0x1f
    80002b74:	58870713          	addi	a4,a4,1416 # 800220f8 <pxReadyTasksLists>
    80002b78:	00e78733          	add	a4,a5,a4
    80002b7c:	01813783          	ld	a5,24(sp)
    80002b80:	00878793          	addi	a5,a5,8
    80002b84:	00078593          	mv	a1,a5
    80002b88:	00070513          	mv	a0,a4
    80002b8c:	cfdfd0ef          	jal	ra,80000888 <vListInsertEnd>
    80002b90:	01813783          	ld	a5,24(sp)
    80002b94:	0587b703          	ld	a4,88(a5)
    80002b98:	0001f797          	auipc	a5,0x1f
    80002b9c:	22878793          	addi	a5,a5,552 # 80021dc0 <pxCurrentTCB>
    80002ba0:	0007b783          	ld	a5,0(a5)
    80002ba4:	0587b783          	ld	a5,88(a5)
    80002ba8:	00f76463          	bltu	a4,a5,80002bb0 <vTaskResume+0xec>
    80002bac:	9a5fd0ef          	jal	ra,80000550 <vPortYield>
    80002bb0:	589010ef          	jal	ra,80004938 <vTaskExitCritical>
    80002bb4:	00000013          	nop
    80002bb8:	02813083          	ld	ra,40(sp)
    80002bbc:	03010113          	addi	sp,sp,48
    80002bc0:	00008067          	ret

0000000080002bc4 <xTaskResumeFromISR>:
    80002bc4:	fc010113          	addi	sp,sp,-64
    80002bc8:	02113c23          	sd	ra,56(sp)
    80002bcc:	00a13423          	sd	a0,8(sp)
    80002bd0:	02013423          	sd	zero,40(sp)
    80002bd4:	00813783          	ld	a5,8(sp)
    80002bd8:	02f13023          	sd	a5,32(sp)
    80002bdc:	00813783          	ld	a5,8(sp)
    80002be0:	00079663          	bnez	a5,80002bec <xTaskResumeFromISR+0x28>
    80002be4:	30047073          	csrci	mstatus,8
    80002be8:	0000006f          	j	80002be8 <xTaskResumeFromISR+0x24>
    80002bec:	b55fd0ef          	jal	ra,80000740 <vPortSetInterruptMask>
    80002bf0:	00050793          	mv	a5,a0
    80002bf4:	00f13c23          	sd	a5,24(sp)
    80002bf8:	02013503          	ld	a0,32(sp)
    80002bfc:	e39ff0ef          	jal	ra,80002a34 <prvTaskIsTaskSuspended>
    80002c00:	00050713          	mv	a4,a0
    80002c04:	00100793          	li	a5,1
    80002c08:	0cf71463          	bne	a4,a5,80002cd0 <xTaskResumeFromISR+0x10c>
    80002c0c:	0001f797          	auipc	a5,0x1f
    80002c10:	6dc78793          	addi	a5,a5,1756 # 800222e8 <uxSchedulerSuspended>
    80002c14:	0007b783          	ld	a5,0(a5)
    80002c18:	0a079063          	bnez	a5,80002cb8 <xTaskResumeFromISR+0xf4>
    80002c1c:	02013783          	ld	a5,32(sp)
    80002c20:	0587b703          	ld	a4,88(a5)
    80002c24:	0001f797          	auipc	a5,0x1f
    80002c28:	19c78793          	addi	a5,a5,412 # 80021dc0 <pxCurrentTCB>
    80002c2c:	0007b783          	ld	a5,0(a5)
    80002c30:	0587b783          	ld	a5,88(a5)
    80002c34:	00f76663          	bltu	a4,a5,80002c40 <xTaskResumeFromISR+0x7c>
    80002c38:	00100793          	li	a5,1
    80002c3c:	02f13423          	sd	a5,40(sp)
    80002c40:	02013783          	ld	a5,32(sp)
    80002c44:	00878793          	addi	a5,a5,8
    80002c48:	00078513          	mv	a0,a5
    80002c4c:	d89fd0ef          	jal	ra,800009d4 <uxListRemove>
    80002c50:	02013783          	ld	a5,32(sp)
    80002c54:	0587b703          	ld	a4,88(a5)
    80002c58:	0001f797          	auipc	a5,0x1f
    80002c5c:	65878793          	addi	a5,a5,1624 # 800222b0 <uxTopReadyPriority>
    80002c60:	0007b783          	ld	a5,0(a5)
    80002c64:	00e7fc63          	bgeu	a5,a4,80002c7c <xTaskResumeFromISR+0xb8>
    80002c68:	02013783          	ld	a5,32(sp)
    80002c6c:	0587b703          	ld	a4,88(a5)
    80002c70:	0001f797          	auipc	a5,0x1f
    80002c74:	64078793          	addi	a5,a5,1600 # 800222b0 <uxTopReadyPriority>
    80002c78:	00e7b023          	sd	a4,0(a5)
    80002c7c:	02013783          	ld	a5,32(sp)
    80002c80:	0587b703          	ld	a4,88(a5)
    80002c84:	00070793          	mv	a5,a4
    80002c88:	00279793          	slli	a5,a5,0x2
    80002c8c:	00e787b3          	add	a5,a5,a4
    80002c90:	00379793          	slli	a5,a5,0x3
    80002c94:	0001f717          	auipc	a4,0x1f
    80002c98:	46470713          	addi	a4,a4,1124 # 800220f8 <pxReadyTasksLists>
    80002c9c:	00e78733          	add	a4,a5,a4
    80002ca0:	02013783          	ld	a5,32(sp)
    80002ca4:	00878793          	addi	a5,a5,8
    80002ca8:	00078593          	mv	a1,a5
    80002cac:	00070513          	mv	a0,a4
    80002cb0:	bd9fd0ef          	jal	ra,80000888 <vListInsertEnd>
    80002cb4:	01c0006f          	j	80002cd0 <xTaskResumeFromISR+0x10c>
    80002cb8:	02013783          	ld	a5,32(sp)
    80002cbc:	03078793          	addi	a5,a5,48
    80002cc0:	00078593          	mv	a1,a5
    80002cc4:	0001f517          	auipc	a0,0x1f
    80002cc8:	55c50513          	addi	a0,a0,1372 # 80022220 <xPendingReadyList>
    80002ccc:	bbdfd0ef          	jal	ra,80000888 <vListInsertEnd>
    80002cd0:	01813783          	ld	a5,24(sp)
    80002cd4:	0007879b          	sext.w	a5,a5
    80002cd8:	00078513          	mv	a0,a5
    80002cdc:	a45fd0ef          	jal	ra,80000720 <vPortClearInterruptMask>
    80002ce0:	02813783          	ld	a5,40(sp)
    80002ce4:	00078513          	mv	a0,a5
    80002ce8:	03813083          	ld	ra,56(sp)
    80002cec:	04010113          	addi	sp,sp,64
    80002cf0:	00008067          	ret

0000000080002cf4 <vTaskStartScheduler>:
    80002cf4:	fe010113          	addi	sp,sp,-32
    80002cf8:	00113c23          	sd	ra,24(sp)
    80002cfc:	00000893          	li	a7,0
    80002d00:	00000813          	li	a6,0
    80002d04:	00000793          	li	a5,0
    80002d08:	00000713          	li	a4,0
    80002d0c:	00000693          	li	a3,0
    80002d10:	40000613          	li	a2,1024
    80002d14:	0001d597          	auipc	a1,0x1d
    80002d18:	2ec58593          	addi	a1,a1,748 # 80020000 <__rodata_start>
    80002d1c:	00001517          	auipc	a0,0x1
    80002d20:	0a050513          	addi	a0,a0,160 # 80003dbc <prvIdleTask>
    80002d24:	ab4ff0ef          	jal	ra,80001fd8 <xTaskGenericCreate>
    80002d28:	00a13423          	sd	a0,8(sp)
    80002d2c:	00813703          	ld	a4,8(sp)
    80002d30:	00100793          	li	a5,1
    80002d34:	00f71663          	bne	a4,a5,80002d40 <vTaskStartScheduler+0x4c>
    80002d38:	660020ef          	jal	ra,80005398 <xTimerCreateTimerTask>
    80002d3c:	00a13423          	sd	a0,8(sp)
    80002d40:	00813703          	ld	a4,8(sp)
    80002d44:	00100793          	li	a5,1
    80002d48:	02f71e63          	bne	a4,a5,80002d84 <vTaskStartScheduler+0x90>
    80002d4c:	30047073          	csrci	mstatus,8
    80002d50:	0001f797          	auipc	a5,0x1f
    80002d54:	59078793          	addi	a5,a5,1424 # 800222e0 <xNextTaskUnblockTime>
    80002d58:	fff00713          	li	a4,-1
    80002d5c:	00e7a023          	sw	a4,0(a5)
    80002d60:	0001f797          	auipc	a5,0x1f
    80002d64:	55878793          	addi	a5,a5,1368 # 800222b8 <xSchedulerRunning>
    80002d68:	00100713          	li	a4,1
    80002d6c:	00e7b023          	sd	a4,0(a5)
    80002d70:	0001f797          	auipc	a5,0x1f
    80002d74:	53878793          	addi	a5,a5,1336 # 800222a8 <xTickCount>
    80002d78:	0007a023          	sw	zero,0(a5)
    80002d7c:	e28fd0ef          	jal	ra,800003a4 <xPortStartScheduler>
    80002d80:	0140006f          	j	80002d94 <vTaskStartScheduler+0xa0>
    80002d84:	00813783          	ld	a5,8(sp)
    80002d88:	00079663          	bnez	a5,80002d94 <vTaskStartScheduler+0xa0>
    80002d8c:	30047073          	csrci	mstatus,8
    80002d90:	0000006f          	j	80002d90 <vTaskStartScheduler+0x9c>
    80002d94:	00000013          	nop
    80002d98:	01813083          	ld	ra,24(sp)
    80002d9c:	02010113          	addi	sp,sp,32
    80002da0:	00008067          	ret

0000000080002da4 <vTaskEndScheduler>:
    80002da4:	ff010113          	addi	sp,sp,-16
    80002da8:	00113423          	sd	ra,8(sp)
    80002dac:	30047073          	csrci	mstatus,8
    80002db0:	0001f797          	auipc	a5,0x1f
    80002db4:	50878793          	addi	a5,a5,1288 # 800222b8 <xSchedulerRunning>
    80002db8:	0007b023          	sd	zero,0(a5)
    80002dbc:	f0cfd0ef          	jal	ra,800004c8 <vPortEndScheduler>
    80002dc0:	00000013          	nop
    80002dc4:	00813083          	ld	ra,8(sp)
    80002dc8:	01010113          	addi	sp,sp,16
    80002dcc:	00008067          	ret

0000000080002dd0 <vTaskSuspendAll>:
    80002dd0:	0001f797          	auipc	a5,0x1f
    80002dd4:	51878793          	addi	a5,a5,1304 # 800222e8 <uxSchedulerSuspended>
    80002dd8:	0007b783          	ld	a5,0(a5)
    80002ddc:	00178713          	addi	a4,a5,1
    80002de0:	0001f797          	auipc	a5,0x1f
    80002de4:	50878793          	addi	a5,a5,1288 # 800222e8 <uxSchedulerSuspended>
    80002de8:	00e7b023          	sd	a4,0(a5)
    80002dec:	00000013          	nop
    80002df0:	00008067          	ret

0000000080002df4 <xTaskResumeAll>:
    80002df4:	fe010113          	addi	sp,sp,-32
    80002df8:	00113c23          	sd	ra,24(sp)
    80002dfc:	00013423          	sd	zero,8(sp)
    80002e00:	0001f797          	auipc	a5,0x1f
    80002e04:	4e878793          	addi	a5,a5,1256 # 800222e8 <uxSchedulerSuspended>
    80002e08:	0007b783          	ld	a5,0(a5)
    80002e0c:	00079663          	bnez	a5,80002e18 <xTaskResumeAll+0x24>
    80002e10:	30047073          	csrci	mstatus,8
    80002e14:	0000006f          	j	80002e14 <xTaskResumeAll+0x20>
    80002e18:	2e1010ef          	jal	ra,800048f8 <vTaskEnterCritical>
    80002e1c:	0001f797          	auipc	a5,0x1f
    80002e20:	4cc78793          	addi	a5,a5,1228 # 800222e8 <uxSchedulerSuspended>
    80002e24:	0007b783          	ld	a5,0(a5)
    80002e28:	fff78713          	addi	a4,a5,-1
    80002e2c:	0001f797          	auipc	a5,0x1f
    80002e30:	4bc78793          	addi	a5,a5,1212 # 800222e8 <uxSchedulerSuspended>
    80002e34:	00e7b023          	sd	a4,0(a5)
    80002e38:	0001f797          	auipc	a5,0x1f
    80002e3c:	4b078793          	addi	a5,a5,1200 # 800222e8 <uxSchedulerSuspended>
    80002e40:	0007b783          	ld	a5,0(a5)
    80002e44:	16079463          	bnez	a5,80002fac <xTaskResumeAll+0x1b8>
    80002e48:	0001f797          	auipc	a5,0x1f
    80002e4c:	45878793          	addi	a5,a5,1112 # 800222a0 <uxCurrentNumberOfTasks>
    80002e50:	0007b783          	ld	a5,0(a5)
    80002e54:	14078c63          	beqz	a5,80002fac <xTaskResumeAll+0x1b8>
    80002e58:	0c80006f          	j	80002f20 <xTaskResumeAll+0x12c>
    80002e5c:	0001f797          	auipc	a5,0x1f
    80002e60:	3c478793          	addi	a5,a5,964 # 80022220 <xPendingReadyList>
    80002e64:	0187b783          	ld	a5,24(a5)
    80002e68:	0187b783          	ld	a5,24(a5)
    80002e6c:	00f13023          	sd	a5,0(sp)
    80002e70:	00013783          	ld	a5,0(sp)
    80002e74:	03078793          	addi	a5,a5,48
    80002e78:	00078513          	mv	a0,a5
    80002e7c:	b59fd0ef          	jal	ra,800009d4 <uxListRemove>
    80002e80:	00013783          	ld	a5,0(sp)
    80002e84:	00878793          	addi	a5,a5,8
    80002e88:	00078513          	mv	a0,a5
    80002e8c:	b49fd0ef          	jal	ra,800009d4 <uxListRemove>
    80002e90:	00013783          	ld	a5,0(sp)
    80002e94:	0587b703          	ld	a4,88(a5)
    80002e98:	0001f797          	auipc	a5,0x1f
    80002e9c:	41878793          	addi	a5,a5,1048 # 800222b0 <uxTopReadyPriority>
    80002ea0:	0007b783          	ld	a5,0(a5)
    80002ea4:	00e7fc63          	bgeu	a5,a4,80002ebc <xTaskResumeAll+0xc8>
    80002ea8:	00013783          	ld	a5,0(sp)
    80002eac:	0587b703          	ld	a4,88(a5)
    80002eb0:	0001f797          	auipc	a5,0x1f
    80002eb4:	40078793          	addi	a5,a5,1024 # 800222b0 <uxTopReadyPriority>
    80002eb8:	00e7b023          	sd	a4,0(a5)
    80002ebc:	00013783          	ld	a5,0(sp)
    80002ec0:	0587b703          	ld	a4,88(a5)
    80002ec4:	00070793          	mv	a5,a4
    80002ec8:	00279793          	slli	a5,a5,0x2
    80002ecc:	00e787b3          	add	a5,a5,a4
    80002ed0:	00379793          	slli	a5,a5,0x3
    80002ed4:	0001f717          	auipc	a4,0x1f
    80002ed8:	22470713          	addi	a4,a4,548 # 800220f8 <pxReadyTasksLists>
    80002edc:	00e78733          	add	a4,a5,a4
    80002ee0:	00013783          	ld	a5,0(sp)
    80002ee4:	00878793          	addi	a5,a5,8
    80002ee8:	00078593          	mv	a1,a5
    80002eec:	00070513          	mv	a0,a4
    80002ef0:	999fd0ef          	jal	ra,80000888 <vListInsertEnd>
    80002ef4:	00013783          	ld	a5,0(sp)
    80002ef8:	0587b703          	ld	a4,88(a5)
    80002efc:	0001f797          	auipc	a5,0x1f
    80002f00:	ec478793          	addi	a5,a5,-316 # 80021dc0 <pxCurrentTCB>
    80002f04:	0007b783          	ld	a5,0(a5)
    80002f08:	0587b783          	ld	a5,88(a5)
    80002f0c:	00f76a63          	bltu	a4,a5,80002f20 <xTaskResumeAll+0x12c>
    80002f10:	0001f797          	auipc	a5,0x1f
    80002f14:	3b878793          	addi	a5,a5,952 # 800222c8 <xYieldPending>
    80002f18:	00100713          	li	a4,1
    80002f1c:	00e7b023          	sd	a4,0(a5)
    80002f20:	0001f797          	auipc	a5,0x1f
    80002f24:	30078793          	addi	a5,a5,768 # 80022220 <xPendingReadyList>
    80002f28:	0007b783          	ld	a5,0(a5)
    80002f2c:	f20798e3          	bnez	a5,80002e5c <xTaskResumeAll+0x68>
    80002f30:	0001f797          	auipc	a5,0x1f
    80002f34:	39078793          	addi	a5,a5,912 # 800222c0 <uxPendedTicks>
    80002f38:	0007b783          	ld	a5,0(a5)
    80002f3c:	04078863          	beqz	a5,80002f8c <xTaskResumeAll+0x198>
    80002f40:	03c0006f          	j	80002f7c <xTaskResumeAll+0x188>
    80002f44:	304000ef          	jal	ra,80003248 <xTaskIncrementTick>
    80002f48:	00050793          	mv	a5,a0
    80002f4c:	00078a63          	beqz	a5,80002f60 <xTaskResumeAll+0x16c>
    80002f50:	0001f797          	auipc	a5,0x1f
    80002f54:	37878793          	addi	a5,a5,888 # 800222c8 <xYieldPending>
    80002f58:	00100713          	li	a4,1
    80002f5c:	00e7b023          	sd	a4,0(a5)
    80002f60:	0001f797          	auipc	a5,0x1f
    80002f64:	36078793          	addi	a5,a5,864 # 800222c0 <uxPendedTicks>
    80002f68:	0007b783          	ld	a5,0(a5)
    80002f6c:	fff78713          	addi	a4,a5,-1
    80002f70:	0001f797          	auipc	a5,0x1f
    80002f74:	35078793          	addi	a5,a5,848 # 800222c0 <uxPendedTicks>
    80002f78:	00e7b023          	sd	a4,0(a5)
    80002f7c:	0001f797          	auipc	a5,0x1f
    80002f80:	34478793          	addi	a5,a5,836 # 800222c0 <uxPendedTicks>
    80002f84:	0007b783          	ld	a5,0(a5)
    80002f88:	fa079ee3          	bnez	a5,80002f44 <xTaskResumeAll+0x150>
    80002f8c:	0001f797          	auipc	a5,0x1f
    80002f90:	33c78793          	addi	a5,a5,828 # 800222c8 <xYieldPending>
    80002f94:	0007b703          	ld	a4,0(a5)
    80002f98:	00100793          	li	a5,1
    80002f9c:	00f71863          	bne	a4,a5,80002fac <xTaskResumeAll+0x1b8>
    80002fa0:	00100793          	li	a5,1
    80002fa4:	00f13423          	sd	a5,8(sp)
    80002fa8:	da8fd0ef          	jal	ra,80000550 <vPortYield>
    80002fac:	18d010ef          	jal	ra,80004938 <vTaskExitCritical>
    80002fb0:	00813783          	ld	a5,8(sp)
    80002fb4:	00078513          	mv	a0,a5
    80002fb8:	01813083          	ld	ra,24(sp)
    80002fbc:	02010113          	addi	sp,sp,32
    80002fc0:	00008067          	ret

0000000080002fc4 <xTaskGetTickCount>:
    80002fc4:	fe010113          	addi	sp,sp,-32
    80002fc8:	00113c23          	sd	ra,24(sp)
    80002fcc:	12d010ef          	jal	ra,800048f8 <vTaskEnterCritical>
    80002fd0:	0001f797          	auipc	a5,0x1f
    80002fd4:	2d878793          	addi	a5,a5,728 # 800222a8 <xTickCount>
    80002fd8:	0007a783          	lw	a5,0(a5)
    80002fdc:	00f12623          	sw	a5,12(sp)
    80002fe0:	159010ef          	jal	ra,80004938 <vTaskExitCritical>
    80002fe4:	00c12783          	lw	a5,12(sp)
    80002fe8:	00078513          	mv	a0,a5
    80002fec:	01813083          	ld	ra,24(sp)
    80002ff0:	02010113          	addi	sp,sp,32
    80002ff4:	00008067          	ret

0000000080002ff8 <xTaskGetTickCountFromISR>:
    80002ff8:	fe010113          	addi	sp,sp,-32
    80002ffc:	00113c23          	sd	ra,24(sp)
    80003000:	f40fd0ef          	jal	ra,80000740 <vPortSetInterruptMask>
    80003004:	00050793          	mv	a5,a0
    80003008:	00f13423          	sd	a5,8(sp)
    8000300c:	0001f797          	auipc	a5,0x1f
    80003010:	29c78793          	addi	a5,a5,668 # 800222a8 <xTickCount>
    80003014:	0007a783          	lw	a5,0(a5)
    80003018:	00f12223          	sw	a5,4(sp)
    8000301c:	00813783          	ld	a5,8(sp)
    80003020:	0007879b          	sext.w	a5,a5
    80003024:	00078513          	mv	a0,a5
    80003028:	ef8fd0ef          	jal	ra,80000720 <vPortClearInterruptMask>
    8000302c:	00412783          	lw	a5,4(sp)
    80003030:	00078513          	mv	a0,a5
    80003034:	01813083          	ld	ra,24(sp)
    80003038:	02010113          	addi	sp,sp,32
    8000303c:	00008067          	ret

0000000080003040 <uxTaskGetNumberOfTasks>:
    80003040:	0001f797          	auipc	a5,0x1f
    80003044:	26078793          	addi	a5,a5,608 # 800222a0 <uxCurrentNumberOfTasks>
    80003048:	0007b783          	ld	a5,0(a5)
    8000304c:	00078513          	mv	a0,a5
    80003050:	00008067          	ret

0000000080003054 <uxTaskGetSystemState>:
    80003054:	fc010113          	addi	sp,sp,-64
    80003058:	02113c23          	sd	ra,56(sp)
    8000305c:	00a13c23          	sd	a0,24(sp)
    80003060:	00b13823          	sd	a1,16(sp)
    80003064:	00c13423          	sd	a2,8(sp)
    80003068:	02013423          	sd	zero,40(sp)
    8000306c:	00500793          	li	a5,5
    80003070:	02f13023          	sd	a5,32(sp)
    80003074:	d5dff0ef          	jal	ra,80002dd0 <vTaskSuspendAll>
    80003078:	0001f797          	auipc	a5,0x1f
    8000307c:	22878793          	addi	a5,a5,552 # 800222a0 <uxCurrentNumberOfTasks>
    80003080:	0007b783          	ld	a5,0(a5)
    80003084:	01013703          	ld	a4,16(sp)
    80003088:	1af76463          	bltu	a4,a5,80003230 <uxTaskGetSystemState+0x1dc>
    8000308c:	02013783          	ld	a5,32(sp)
    80003090:	fff78793          	addi	a5,a5,-1
    80003094:	02f13023          	sd	a5,32(sp)
    80003098:	02813703          	ld	a4,40(sp)
    8000309c:	00070793          	mv	a5,a4
    800030a0:	00379793          	slli	a5,a5,0x3
    800030a4:	40e787b3          	sub	a5,a5,a4
    800030a8:	00379793          	slli	a5,a5,0x3
    800030ac:	00078713          	mv	a4,a5
    800030b0:	01813783          	ld	a5,24(sp)
    800030b4:	00e786b3          	add	a3,a5,a4
    800030b8:	02013703          	ld	a4,32(sp)
    800030bc:	00070793          	mv	a5,a4
    800030c0:	00279793          	slli	a5,a5,0x2
    800030c4:	00e787b3          	add	a5,a5,a4
    800030c8:	00379793          	slli	a5,a5,0x3
    800030cc:	0001f717          	auipc	a4,0x1f
    800030d0:	02c70713          	addi	a4,a4,44 # 800220f8 <pxReadyTasksLists>
    800030d4:	00e787b3          	add	a5,a5,a4
    800030d8:	00100613          	li	a2,1
    800030dc:	00078593          	mv	a1,a5
    800030e0:	00068513          	mv	a0,a3
    800030e4:	148010ef          	jal	ra,8000422c <prvListTaskWithinSingleList>
    800030e8:	00050713          	mv	a4,a0
    800030ec:	02813783          	ld	a5,40(sp)
    800030f0:	00e787b3          	add	a5,a5,a4
    800030f4:	02f13423          	sd	a5,40(sp)
    800030f8:	02013783          	ld	a5,32(sp)
    800030fc:	f80798e3          	bnez	a5,8000308c <uxTaskGetSystemState+0x38>
    80003100:	02813703          	ld	a4,40(sp)
    80003104:	00070793          	mv	a5,a4
    80003108:	00379793          	slli	a5,a5,0x3
    8000310c:	40e787b3          	sub	a5,a5,a4
    80003110:	00379793          	slli	a5,a5,0x3
    80003114:	00078713          	mv	a4,a5
    80003118:	01813783          	ld	a5,24(sp)
    8000311c:	00e78733          	add	a4,a5,a4
    80003120:	0001f797          	auipc	a5,0x1f
    80003124:	0f078793          	addi	a5,a5,240 # 80022210 <pxDelayedTaskList>
    80003128:	0007b783          	ld	a5,0(a5)
    8000312c:	00200613          	li	a2,2
    80003130:	00078593          	mv	a1,a5
    80003134:	00070513          	mv	a0,a4
    80003138:	0f4010ef          	jal	ra,8000422c <prvListTaskWithinSingleList>
    8000313c:	00050713          	mv	a4,a0
    80003140:	02813783          	ld	a5,40(sp)
    80003144:	00e787b3          	add	a5,a5,a4
    80003148:	02f13423          	sd	a5,40(sp)
    8000314c:	02813703          	ld	a4,40(sp)
    80003150:	00070793          	mv	a5,a4
    80003154:	00379793          	slli	a5,a5,0x3
    80003158:	40e787b3          	sub	a5,a5,a4
    8000315c:	00379793          	slli	a5,a5,0x3
    80003160:	00078713          	mv	a4,a5
    80003164:	01813783          	ld	a5,24(sp)
    80003168:	00e78733          	add	a4,a5,a4
    8000316c:	0001f797          	auipc	a5,0x1f
    80003170:	0ac78793          	addi	a5,a5,172 # 80022218 <pxOverflowDelayedTaskList>
    80003174:	0007b783          	ld	a5,0(a5)
    80003178:	00200613          	li	a2,2
    8000317c:	00078593          	mv	a1,a5
    80003180:	00070513          	mv	a0,a4
    80003184:	0a8010ef          	jal	ra,8000422c <prvListTaskWithinSingleList>
    80003188:	00050713          	mv	a4,a0
    8000318c:	02813783          	ld	a5,40(sp)
    80003190:	00e787b3          	add	a5,a5,a4
    80003194:	02f13423          	sd	a5,40(sp)
    80003198:	02813703          	ld	a4,40(sp)
    8000319c:	00070793          	mv	a5,a4
    800031a0:	00379793          	slli	a5,a5,0x3
    800031a4:	40e787b3          	sub	a5,a5,a4
    800031a8:	00379793          	slli	a5,a5,0x3
    800031ac:	00078713          	mv	a4,a5
    800031b0:	01813783          	ld	a5,24(sp)
    800031b4:	00e787b3          	add	a5,a5,a4
    800031b8:	00400613          	li	a2,4
    800031bc:	0001f597          	auipc	a1,0x1f
    800031c0:	08c58593          	addi	a1,a1,140 # 80022248 <xTasksWaitingTermination>
    800031c4:	00078513          	mv	a0,a5
    800031c8:	064010ef          	jal	ra,8000422c <prvListTaskWithinSingleList>
    800031cc:	00050713          	mv	a4,a0
    800031d0:	02813783          	ld	a5,40(sp)
    800031d4:	00e787b3          	add	a5,a5,a4
    800031d8:	02f13423          	sd	a5,40(sp)
    800031dc:	02813703          	ld	a4,40(sp)
    800031e0:	00070793          	mv	a5,a4
    800031e4:	00379793          	slli	a5,a5,0x3
    800031e8:	40e787b3          	sub	a5,a5,a4
    800031ec:	00379793          	slli	a5,a5,0x3
    800031f0:	00078713          	mv	a4,a5
    800031f4:	01813783          	ld	a5,24(sp)
    800031f8:	00e787b3          	add	a5,a5,a4
    800031fc:	00300613          	li	a2,3
    80003200:	0001f597          	auipc	a1,0x1f
    80003204:	07858593          	addi	a1,a1,120 # 80022278 <xSuspendedTaskList>
    80003208:	00078513          	mv	a0,a5
    8000320c:	020010ef          	jal	ra,8000422c <prvListTaskWithinSingleList>
    80003210:	00050713          	mv	a4,a0
    80003214:	02813783          	ld	a5,40(sp)
    80003218:	00e787b3          	add	a5,a5,a4
    8000321c:	02f13423          	sd	a5,40(sp)
    80003220:	00813783          	ld	a5,8(sp)
    80003224:	00078663          	beqz	a5,80003230 <uxTaskGetSystemState+0x1dc>
    80003228:	00813783          	ld	a5,8(sp)
    8000322c:	0007a023          	sw	zero,0(a5)
    80003230:	bc5ff0ef          	jal	ra,80002df4 <xTaskResumeAll>
    80003234:	02813783          	ld	a5,40(sp)
    80003238:	00078513          	mv	a0,a5
    8000323c:	03813083          	ld	ra,56(sp)
    80003240:	04010113          	addi	sp,sp,64
    80003244:	00008067          	ret

0000000080003248 <xTaskIncrementTick>:
    80003248:	fc010113          	addi	sp,sp,-64
    8000324c:	02113c23          	sd	ra,56(sp)
    80003250:	02013423          	sd	zero,40(sp)
    80003254:	0001f797          	auipc	a5,0x1f
    80003258:	09478793          	addi	a5,a5,148 # 800222e8 <uxSchedulerSuspended>
    8000325c:	0007b783          	ld	a5,0(a5)
    80003260:	26079463          	bnez	a5,800034c8 <xTaskIncrementTick+0x280>
    80003264:	0001f797          	auipc	a5,0x1f
    80003268:	04478793          	addi	a5,a5,68 # 800222a8 <xTickCount>
    8000326c:	0007a783          	lw	a5,0(a5)
    80003270:	0007879b          	sext.w	a5,a5
    80003274:	0017879b          	addiw	a5,a5,1
    80003278:	0007871b          	sext.w	a4,a5
    8000327c:	0001f797          	auipc	a5,0x1f
    80003280:	02c78793          	addi	a5,a5,44 # 800222a8 <xTickCount>
    80003284:	00e7a023          	sw	a4,0(a5)
    80003288:	0001f797          	auipc	a5,0x1f
    8000328c:	02078793          	addi	a5,a5,32 # 800222a8 <xTickCount>
    80003290:	0007a783          	lw	a5,0(a5)
    80003294:	02f12223          	sw	a5,36(sp)
    80003298:	02412783          	lw	a5,36(sp)
    8000329c:	0007879b          	sext.w	a5,a5
    800032a0:	06079c63          	bnez	a5,80003318 <xTaskIncrementTick+0xd0>
    800032a4:	0001f797          	auipc	a5,0x1f
    800032a8:	f6c78793          	addi	a5,a5,-148 # 80022210 <pxDelayedTaskList>
    800032ac:	0007b783          	ld	a5,0(a5)
    800032b0:	0007b783          	ld	a5,0(a5)
    800032b4:	00078663          	beqz	a5,800032c0 <xTaskIncrementTick+0x78>
    800032b8:	30047073          	csrci	mstatus,8
    800032bc:	0000006f          	j	800032bc <xTaskIncrementTick+0x74>
    800032c0:	0001f797          	auipc	a5,0x1f
    800032c4:	f5078793          	addi	a5,a5,-176 # 80022210 <pxDelayedTaskList>
    800032c8:	0007b783          	ld	a5,0(a5)
    800032cc:	00f13c23          	sd	a5,24(sp)
    800032d0:	0001f797          	auipc	a5,0x1f
    800032d4:	f4878793          	addi	a5,a5,-184 # 80022218 <pxOverflowDelayedTaskList>
    800032d8:	0007b703          	ld	a4,0(a5)
    800032dc:	0001f797          	auipc	a5,0x1f
    800032e0:	f3478793          	addi	a5,a5,-204 # 80022210 <pxDelayedTaskList>
    800032e4:	00e7b023          	sd	a4,0(a5)
    800032e8:	0001f797          	auipc	a5,0x1f
    800032ec:	f3078793          	addi	a5,a5,-208 # 80022218 <pxOverflowDelayedTaskList>
    800032f0:	01813703          	ld	a4,24(sp)
    800032f4:	00e7b023          	sd	a4,0(a5)
    800032f8:	0001f797          	auipc	a5,0x1f
    800032fc:	fd878793          	addi	a5,a5,-40 # 800222d0 <xNumOfOverflows>
    80003300:	0007b783          	ld	a5,0(a5)
    80003304:	00178713          	addi	a4,a5,1
    80003308:	0001f797          	auipc	a5,0x1f
    8000330c:	fc878793          	addi	a5,a5,-56 # 800222d0 <xNumOfOverflows>
    80003310:	00e7b023          	sd	a4,0(a5)
    80003314:	250010ef          	jal	ra,80004564 <prvResetNextTaskUnblockTime>
    80003318:	0001f797          	auipc	a5,0x1f
    8000331c:	fc878793          	addi	a5,a5,-56 # 800222e0 <xNextTaskUnblockTime>
    80003320:	0007a783          	lw	a5,0(a5)
    80003324:	0007871b          	sext.w	a4,a5
    80003328:	02412783          	lw	a5,36(sp)
    8000332c:	0007879b          	sext.w	a5,a5
    80003330:	14e7e063          	bltu	a5,a4,80003470 <xTaskIncrementTick+0x228>
    80003334:	0001f797          	auipc	a5,0x1f
    80003338:	edc78793          	addi	a5,a5,-292 # 80022210 <pxDelayedTaskList>
    8000333c:	0007b783          	ld	a5,0(a5)
    80003340:	0007b783          	ld	a5,0(a5)
    80003344:	00079663          	bnez	a5,80003350 <xTaskIncrementTick+0x108>
    80003348:	00100793          	li	a5,1
    8000334c:	0080006f          	j	80003354 <xTaskIncrementTick+0x10c>
    80003350:	00000793          	li	a5,0
    80003354:	00078c63          	beqz	a5,8000336c <xTaskIncrementTick+0x124>
    80003358:	0001f797          	auipc	a5,0x1f
    8000335c:	f8878793          	addi	a5,a5,-120 # 800222e0 <xNextTaskUnblockTime>
    80003360:	fff00713          	li	a4,-1
    80003364:	00e7a023          	sw	a4,0(a5)
    80003368:	1080006f          	j	80003470 <xTaskIncrementTick+0x228>
    8000336c:	0001f797          	auipc	a5,0x1f
    80003370:	ea478793          	addi	a5,a5,-348 # 80022210 <pxDelayedTaskList>
    80003374:	0007b783          	ld	a5,0(a5)
    80003378:	0187b783          	ld	a5,24(a5)
    8000337c:	0187b783          	ld	a5,24(a5)
    80003380:	00f13823          	sd	a5,16(sp)
    80003384:	01013783          	ld	a5,16(sp)
    80003388:	0087a783          	lw	a5,8(a5)
    8000338c:	00f12623          	sw	a5,12(sp)
    80003390:	02412703          	lw	a4,36(sp)
    80003394:	00c12783          	lw	a5,12(sp)
    80003398:	0007071b          	sext.w	a4,a4
    8000339c:	0007879b          	sext.w	a5,a5
    800033a0:	00f77c63          	bgeu	a4,a5,800033b8 <xTaskIncrementTick+0x170>
    800033a4:	0001f797          	auipc	a5,0x1f
    800033a8:	f3c78793          	addi	a5,a5,-196 # 800222e0 <xNextTaskUnblockTime>
    800033ac:	00c12703          	lw	a4,12(sp)
    800033b0:	00e7a023          	sw	a4,0(a5)
    800033b4:	0bc0006f          	j	80003470 <xTaskIncrementTick+0x228>
    800033b8:	01013783          	ld	a5,16(sp)
    800033bc:	00878793          	addi	a5,a5,8
    800033c0:	00078513          	mv	a0,a5
    800033c4:	e10fd0ef          	jal	ra,800009d4 <uxListRemove>
    800033c8:	01013783          	ld	a5,16(sp)
    800033cc:	0507b783          	ld	a5,80(a5)
    800033d0:	00078a63          	beqz	a5,800033e4 <xTaskIncrementTick+0x19c>
    800033d4:	01013783          	ld	a5,16(sp)
    800033d8:	03078793          	addi	a5,a5,48
    800033dc:	00078513          	mv	a0,a5
    800033e0:	df4fd0ef          	jal	ra,800009d4 <uxListRemove>
    800033e4:	01013783          	ld	a5,16(sp)
    800033e8:	0587b703          	ld	a4,88(a5)
    800033ec:	0001f797          	auipc	a5,0x1f
    800033f0:	ec478793          	addi	a5,a5,-316 # 800222b0 <uxTopReadyPriority>
    800033f4:	0007b783          	ld	a5,0(a5)
    800033f8:	00e7fc63          	bgeu	a5,a4,80003410 <xTaskIncrementTick+0x1c8>
    800033fc:	01013783          	ld	a5,16(sp)
    80003400:	0587b703          	ld	a4,88(a5)
    80003404:	0001f797          	auipc	a5,0x1f
    80003408:	eac78793          	addi	a5,a5,-340 # 800222b0 <uxTopReadyPriority>
    8000340c:	00e7b023          	sd	a4,0(a5)
    80003410:	01013783          	ld	a5,16(sp)
    80003414:	0587b703          	ld	a4,88(a5)
    80003418:	00070793          	mv	a5,a4
    8000341c:	00279793          	slli	a5,a5,0x2
    80003420:	00e787b3          	add	a5,a5,a4
    80003424:	00379793          	slli	a5,a5,0x3
    80003428:	0001f717          	auipc	a4,0x1f
    8000342c:	cd070713          	addi	a4,a4,-816 # 800220f8 <pxReadyTasksLists>
    80003430:	00e78733          	add	a4,a5,a4
    80003434:	01013783          	ld	a5,16(sp)
    80003438:	00878793          	addi	a5,a5,8
    8000343c:	00078593          	mv	a1,a5
    80003440:	00070513          	mv	a0,a4
    80003444:	c44fd0ef          	jal	ra,80000888 <vListInsertEnd>
    80003448:	01013783          	ld	a5,16(sp)
    8000344c:	0587b703          	ld	a4,88(a5)
    80003450:	0001f797          	auipc	a5,0x1f
    80003454:	97078793          	addi	a5,a5,-1680 # 80021dc0 <pxCurrentTCB>
    80003458:	0007b783          	ld	a5,0(a5)
    8000345c:	0587b783          	ld	a5,88(a5)
    80003460:	ecf76ae3          	bltu	a4,a5,80003334 <xTaskIncrementTick+0xec>
    80003464:	00100793          	li	a5,1
    80003468:	02f13423          	sd	a5,40(sp)
    8000346c:	ec9ff06f          	j	80003334 <xTaskIncrementTick+0xec>
    80003470:	0001f797          	auipc	a5,0x1f
    80003474:	95078793          	addi	a5,a5,-1712 # 80021dc0 <pxCurrentTCB>
    80003478:	0007b783          	ld	a5,0(a5)
    8000347c:	0587b703          	ld	a4,88(a5)
    80003480:	0001f697          	auipc	a3,0x1f
    80003484:	c7868693          	addi	a3,a3,-904 # 800220f8 <pxReadyTasksLists>
    80003488:	00070793          	mv	a5,a4
    8000348c:	00279793          	slli	a5,a5,0x2
    80003490:	00e787b3          	add	a5,a5,a4
    80003494:	00379793          	slli	a5,a5,0x3
    80003498:	00f687b3          	add	a5,a3,a5
    8000349c:	0007b703          	ld	a4,0(a5)
    800034a0:	00100793          	li	a5,1
    800034a4:	00e7f663          	bgeu	a5,a4,800034b0 <xTaskIncrementTick+0x268>
    800034a8:	00100793          	li	a5,1
    800034ac:	02f13423          	sd	a5,40(sp)
    800034b0:	0001f797          	auipc	a5,0x1f
    800034b4:	e1078793          	addi	a5,a5,-496 # 800222c0 <uxPendedTicks>
    800034b8:	0007b783          	ld	a5,0(a5)
    800034bc:	02079663          	bnez	a5,800034e8 <xTaskIncrementTick+0x2a0>
    800034c0:	315050ef          	jal	ra,80008fd4 <vApplicationTickHook>
    800034c4:	0240006f          	j	800034e8 <xTaskIncrementTick+0x2a0>
    800034c8:	0001f797          	auipc	a5,0x1f
    800034cc:	df878793          	addi	a5,a5,-520 # 800222c0 <uxPendedTicks>
    800034d0:	0007b783          	ld	a5,0(a5)
    800034d4:	00178713          	addi	a4,a5,1
    800034d8:	0001f797          	auipc	a5,0x1f
    800034dc:	de878793          	addi	a5,a5,-536 # 800222c0 <uxPendedTicks>
    800034e0:	00e7b023          	sd	a4,0(a5)
    800034e4:	2f1050ef          	jal	ra,80008fd4 <vApplicationTickHook>
    800034e8:	0001f797          	auipc	a5,0x1f
    800034ec:	de078793          	addi	a5,a5,-544 # 800222c8 <xYieldPending>
    800034f0:	0007b783          	ld	a5,0(a5)
    800034f4:	00078663          	beqz	a5,80003500 <xTaskIncrementTick+0x2b8>
    800034f8:	00100793          	li	a5,1
    800034fc:	02f13423          	sd	a5,40(sp)
    80003500:	02813783          	ld	a5,40(sp)
    80003504:	00078513          	mv	a0,a5
    80003508:	03813083          	ld	ra,56(sp)
    8000350c:	04010113          	addi	sp,sp,64
    80003510:	00008067          	ret

0000000080003514 <vTaskSwitchContext>:
    80003514:	fd010113          	addi	sp,sp,-48
    80003518:	02113423          	sd	ra,40(sp)
    8000351c:	0001f797          	auipc	a5,0x1f
    80003520:	dcc78793          	addi	a5,a5,-564 # 800222e8 <uxSchedulerSuspended>
    80003524:	0007b783          	ld	a5,0(a5)
    80003528:	00078c63          	beqz	a5,80003540 <vTaskSwitchContext+0x2c>
    8000352c:	0001f797          	auipc	a5,0x1f
    80003530:	d9c78793          	addi	a5,a5,-612 # 800222c8 <xYieldPending>
    80003534:	00100713          	li	a4,1
    80003538:	00e7b023          	sd	a4,0(a5)
    8000353c:	19c0006f          	j	800036d8 <vTaskSwitchContext+0x1c4>
    80003540:	0001f797          	auipc	a5,0x1f
    80003544:	d8878793          	addi	a5,a5,-632 # 800222c8 <xYieldPending>
    80003548:	0007b023          	sd	zero,0(a5)
    8000354c:	0001f797          	auipc	a5,0x1f
    80003550:	87478793          	addi	a5,a5,-1932 # 80021dc0 <pxCurrentTCB>
    80003554:	0007b783          	ld	a5,0(a5)
    80003558:	0607b783          	ld	a5,96(a5)
    8000355c:	00f13c23          	sd	a5,24(sp)
    80003560:	a5a5a7b7          	lui	a5,0xa5a5a
    80003564:	5a578793          	addi	a5,a5,1445 # ffffffffa5a5a5a5 <__stack+0xffffffff259cae85>
    80003568:	00f12a23          	sw	a5,20(sp)
    8000356c:	01813783          	ld	a5,24(sp)
    80003570:	0007a703          	lw	a4,0(a5)
    80003574:	01412783          	lw	a5,20(sp)
    80003578:	0007879b          	sext.w	a5,a5
    8000357c:	04e79663          	bne	a5,a4,800035c8 <vTaskSwitchContext+0xb4>
    80003580:	01813783          	ld	a5,24(sp)
    80003584:	00478793          	addi	a5,a5,4
    80003588:	0007a703          	lw	a4,0(a5)
    8000358c:	01412783          	lw	a5,20(sp)
    80003590:	0007879b          	sext.w	a5,a5
    80003594:	02e79a63          	bne	a5,a4,800035c8 <vTaskSwitchContext+0xb4>
    80003598:	01813783          	ld	a5,24(sp)
    8000359c:	00878793          	addi	a5,a5,8
    800035a0:	0007a703          	lw	a4,0(a5)
    800035a4:	01412783          	lw	a5,20(sp)
    800035a8:	0007879b          	sext.w	a5,a5
    800035ac:	00e79e63          	bne	a5,a4,800035c8 <vTaskSwitchContext+0xb4>
    800035b0:	01813783          	ld	a5,24(sp)
    800035b4:	00c78793          	addi	a5,a5,12
    800035b8:	0007a703          	lw	a4,0(a5)
    800035bc:	01412783          	lw	a5,20(sp)
    800035c0:	0007879b          	sext.w	a5,a5
    800035c4:	06e78263          	beq	a5,a4,80003628 <vTaskSwitchContext+0x114>
    800035c8:	0001e797          	auipc	a5,0x1e
    800035cc:	7f878793          	addi	a5,a5,2040 # 80021dc0 <pxCurrentTCB>
    800035d0:	0007b703          	ld	a4,0(a5)
    800035d4:	0001e797          	auipc	a5,0x1e
    800035d8:	7ec78793          	addi	a5,a5,2028 # 80021dc0 <pxCurrentTCB>
    800035dc:	0007b783          	ld	a5,0(a5)
    800035e0:	06878793          	addi	a5,a5,104
    800035e4:	00078593          	mv	a1,a5
    800035e8:	00070513          	mv	a0,a4
    800035ec:	215050ef          	jal	ra,80009000 <vApplicationStackOverflowHook>
    800035f0:	0380006f          	j	80003628 <vTaskSwitchContext+0x114>
    800035f4:	0001f797          	auipc	a5,0x1f
    800035f8:	cbc78793          	addi	a5,a5,-836 # 800222b0 <uxTopReadyPriority>
    800035fc:	0007b783          	ld	a5,0(a5)
    80003600:	00079663          	bnez	a5,8000360c <vTaskSwitchContext+0xf8>
    80003604:	30047073          	csrci	mstatus,8
    80003608:	0000006f          	j	80003608 <vTaskSwitchContext+0xf4>
    8000360c:	0001f797          	auipc	a5,0x1f
    80003610:	ca478793          	addi	a5,a5,-860 # 800222b0 <uxTopReadyPriority>
    80003614:	0007b783          	ld	a5,0(a5)
    80003618:	fff78713          	addi	a4,a5,-1
    8000361c:	0001f797          	auipc	a5,0x1f
    80003620:	c9478793          	addi	a5,a5,-876 # 800222b0 <uxTopReadyPriority>
    80003624:	00e7b023          	sd	a4,0(a5)
    80003628:	0001f797          	auipc	a5,0x1f
    8000362c:	c8878793          	addi	a5,a5,-888 # 800222b0 <uxTopReadyPriority>
    80003630:	0007b703          	ld	a4,0(a5)
    80003634:	0001f697          	auipc	a3,0x1f
    80003638:	ac468693          	addi	a3,a3,-1340 # 800220f8 <pxReadyTasksLists>
    8000363c:	00070793          	mv	a5,a4
    80003640:	00279793          	slli	a5,a5,0x2
    80003644:	00e787b3          	add	a5,a5,a4
    80003648:	00379793          	slli	a5,a5,0x3
    8000364c:	00f687b3          	add	a5,a3,a5
    80003650:	0007b783          	ld	a5,0(a5)
    80003654:	fa0780e3          	beqz	a5,800035f4 <vTaskSwitchContext+0xe0>
    80003658:	0001f797          	auipc	a5,0x1f
    8000365c:	c5878793          	addi	a5,a5,-936 # 800222b0 <uxTopReadyPriority>
    80003660:	0007b703          	ld	a4,0(a5)
    80003664:	00070793          	mv	a5,a4
    80003668:	00279793          	slli	a5,a5,0x2
    8000366c:	00e787b3          	add	a5,a5,a4
    80003670:	00379793          	slli	a5,a5,0x3
    80003674:	0001f717          	auipc	a4,0x1f
    80003678:	a8470713          	addi	a4,a4,-1404 # 800220f8 <pxReadyTasksLists>
    8000367c:	00e787b3          	add	a5,a5,a4
    80003680:	00f13423          	sd	a5,8(sp)
    80003684:	00813783          	ld	a5,8(sp)
    80003688:	0087b783          	ld	a5,8(a5)
    8000368c:	0087b703          	ld	a4,8(a5)
    80003690:	00813783          	ld	a5,8(sp)
    80003694:	00e7b423          	sd	a4,8(a5)
    80003698:	00813783          	ld	a5,8(sp)
    8000369c:	0087b703          	ld	a4,8(a5)
    800036a0:	00813783          	ld	a5,8(sp)
    800036a4:	01078793          	addi	a5,a5,16
    800036a8:	00f71c63          	bne	a4,a5,800036c0 <vTaskSwitchContext+0x1ac>
    800036ac:	00813783          	ld	a5,8(sp)
    800036b0:	0087b783          	ld	a5,8(a5)
    800036b4:	0087b703          	ld	a4,8(a5)
    800036b8:	00813783          	ld	a5,8(sp)
    800036bc:	00e7b423          	sd	a4,8(a5)
    800036c0:	00813783          	ld	a5,8(sp)
    800036c4:	0087b783          	ld	a5,8(a5)
    800036c8:	0187b703          	ld	a4,24(a5)
    800036cc:	0001e797          	auipc	a5,0x1e
    800036d0:	6f478793          	addi	a5,a5,1780 # 80021dc0 <pxCurrentTCB>
    800036d4:	00e7b023          	sd	a4,0(a5)
    800036d8:	00000013          	nop
    800036dc:	02813083          	ld	ra,40(sp)
    800036e0:	03010113          	addi	sp,sp,48
    800036e4:	00008067          	ret

00000000800036e8 <vTaskPlaceOnEventList>:
    800036e8:	fd010113          	addi	sp,sp,-48
    800036ec:	02113423          	sd	ra,40(sp)
    800036f0:	00a13423          	sd	a0,8(sp)
    800036f4:	00058793          	mv	a5,a1
    800036f8:	00f12223          	sw	a5,4(sp)
    800036fc:	00813783          	ld	a5,8(sp)
    80003700:	00079663          	bnez	a5,8000370c <vTaskPlaceOnEventList+0x24>
    80003704:	30047073          	csrci	mstatus,8
    80003708:	0000006f          	j	80003708 <vTaskPlaceOnEventList+0x20>
    8000370c:	0001e797          	auipc	a5,0x1e
    80003710:	6b478793          	addi	a5,a5,1716 # 80021dc0 <pxCurrentTCB>
    80003714:	0007b783          	ld	a5,0(a5)
    80003718:	03078793          	addi	a5,a5,48
    8000371c:	00078593          	mv	a1,a5
    80003720:	00813503          	ld	a0,8(sp)
    80003724:	9e0fd0ef          	jal	ra,80000904 <vListInsert>
    80003728:	0001e797          	auipc	a5,0x1e
    8000372c:	69878793          	addi	a5,a5,1688 # 80021dc0 <pxCurrentTCB>
    80003730:	0007b783          	ld	a5,0(a5)
    80003734:	00878793          	addi	a5,a5,8
    80003738:	00078513          	mv	a0,a5
    8000373c:	a98fd0ef          	jal	ra,800009d4 <uxListRemove>
    80003740:	00412783          	lw	a5,4(sp)
    80003744:	0007871b          	sext.w	a4,a5
    80003748:	fff00793          	li	a5,-1
    8000374c:	02f71463          	bne	a4,a5,80003774 <vTaskPlaceOnEventList+0x8c>
    80003750:	0001e797          	auipc	a5,0x1e
    80003754:	67078793          	addi	a5,a5,1648 # 80021dc0 <pxCurrentTCB>
    80003758:	0007b783          	ld	a5,0(a5)
    8000375c:	00878793          	addi	a5,a5,8
    80003760:	00078593          	mv	a1,a5
    80003764:	0001f517          	auipc	a0,0x1f
    80003768:	b1450513          	addi	a0,a0,-1260 # 80022278 <xSuspendedTaskList>
    8000376c:	91cfd0ef          	jal	ra,80000888 <vListInsertEnd>
    80003770:	02c0006f          	j	8000379c <vTaskPlaceOnEventList+0xb4>
    80003774:	0001f797          	auipc	a5,0x1f
    80003778:	b3478793          	addi	a5,a5,-1228 # 800222a8 <xTickCount>
    8000377c:	0007a783          	lw	a5,0(a5)
    80003780:	0007879b          	sext.w	a5,a5
    80003784:	00412703          	lw	a4,4(sp)
    80003788:	00f707bb          	addw	a5,a4,a5
    8000378c:	00f12e23          	sw	a5,28(sp)
    80003790:	01c12783          	lw	a5,28(sp)
    80003794:	00078513          	mv	a0,a5
    80003798:	111000ef          	jal	ra,800040a8 <prvAddCurrentTaskToDelayedList>
    8000379c:	00000013          	nop
    800037a0:	02813083          	ld	ra,40(sp)
    800037a4:	03010113          	addi	sp,sp,48
    800037a8:	00008067          	ret

00000000800037ac <vTaskPlaceOnUnorderedEventList>:
    800037ac:	fd010113          	addi	sp,sp,-48
    800037b0:	02113423          	sd	ra,40(sp)
    800037b4:	00a13423          	sd	a0,8(sp)
    800037b8:	00058793          	mv	a5,a1
    800037bc:	00060713          	mv	a4,a2
    800037c0:	00f12223          	sw	a5,4(sp)
    800037c4:	00070793          	mv	a5,a4
    800037c8:	00f12023          	sw	a5,0(sp)
    800037cc:	00813783          	ld	a5,8(sp)
    800037d0:	00079663          	bnez	a5,800037dc <vTaskPlaceOnUnorderedEventList+0x30>
    800037d4:	30047073          	csrci	mstatus,8
    800037d8:	0000006f          	j	800037d8 <vTaskPlaceOnUnorderedEventList+0x2c>
    800037dc:	0001f797          	auipc	a5,0x1f
    800037e0:	b0c78793          	addi	a5,a5,-1268 # 800222e8 <uxSchedulerSuspended>
    800037e4:	0007b783          	ld	a5,0(a5)
    800037e8:	00079663          	bnez	a5,800037f4 <vTaskPlaceOnUnorderedEventList+0x48>
    800037ec:	30047073          	csrci	mstatus,8
    800037f0:	0000006f          	j	800037f0 <vTaskPlaceOnUnorderedEventList+0x44>
    800037f4:	0001e797          	auipc	a5,0x1e
    800037f8:	5cc78793          	addi	a5,a5,1484 # 80021dc0 <pxCurrentTCB>
    800037fc:	0007b783          	ld	a5,0(a5)
    80003800:	00412683          	lw	a3,4(sp)
    80003804:	80000737          	lui	a4,0x80000
    80003808:	00e6e733          	or	a4,a3,a4
    8000380c:	0007071b          	sext.w	a4,a4
    80003810:	02e7a823          	sw	a4,48(a5)
    80003814:	0001e797          	auipc	a5,0x1e
    80003818:	5ac78793          	addi	a5,a5,1452 # 80021dc0 <pxCurrentTCB>
    8000381c:	0007b783          	ld	a5,0(a5)
    80003820:	03078793          	addi	a5,a5,48
    80003824:	00078593          	mv	a1,a5
    80003828:	00813503          	ld	a0,8(sp)
    8000382c:	85cfd0ef          	jal	ra,80000888 <vListInsertEnd>
    80003830:	0001e797          	auipc	a5,0x1e
    80003834:	59078793          	addi	a5,a5,1424 # 80021dc0 <pxCurrentTCB>
    80003838:	0007b783          	ld	a5,0(a5)
    8000383c:	00878793          	addi	a5,a5,8
    80003840:	00078513          	mv	a0,a5
    80003844:	990fd0ef          	jal	ra,800009d4 <uxListRemove>
    80003848:	00012783          	lw	a5,0(sp)
    8000384c:	0007871b          	sext.w	a4,a5
    80003850:	fff00793          	li	a5,-1
    80003854:	02f71463          	bne	a4,a5,8000387c <vTaskPlaceOnUnorderedEventList+0xd0>
    80003858:	0001e797          	auipc	a5,0x1e
    8000385c:	56878793          	addi	a5,a5,1384 # 80021dc0 <pxCurrentTCB>
    80003860:	0007b783          	ld	a5,0(a5)
    80003864:	00878793          	addi	a5,a5,8
    80003868:	00078593          	mv	a1,a5
    8000386c:	0001f517          	auipc	a0,0x1f
    80003870:	a0c50513          	addi	a0,a0,-1524 # 80022278 <xSuspendedTaskList>
    80003874:	814fd0ef          	jal	ra,80000888 <vListInsertEnd>
    80003878:	02c0006f          	j	800038a4 <vTaskPlaceOnUnorderedEventList+0xf8>
    8000387c:	0001f797          	auipc	a5,0x1f
    80003880:	a2c78793          	addi	a5,a5,-1492 # 800222a8 <xTickCount>
    80003884:	0007a783          	lw	a5,0(a5)
    80003888:	0007879b          	sext.w	a5,a5
    8000388c:	00012703          	lw	a4,0(sp)
    80003890:	00f707bb          	addw	a5,a4,a5
    80003894:	00f12e23          	sw	a5,28(sp)
    80003898:	01c12783          	lw	a5,28(sp)
    8000389c:	00078513          	mv	a0,a5
    800038a0:	009000ef          	jal	ra,800040a8 <prvAddCurrentTaskToDelayedList>
    800038a4:	00000013          	nop
    800038a8:	02813083          	ld	ra,40(sp)
    800038ac:	03010113          	addi	sp,sp,48
    800038b0:	00008067          	ret

00000000800038b4 <vTaskPlaceOnEventListRestricted>:
    800038b4:	fc010113          	addi	sp,sp,-64
    800038b8:	02113c23          	sd	ra,56(sp)
    800038bc:	00a13c23          	sd	a0,24(sp)
    800038c0:	00058793          	mv	a5,a1
    800038c4:	00c13423          	sd	a2,8(sp)
    800038c8:	00f12a23          	sw	a5,20(sp)
    800038cc:	01813783          	ld	a5,24(sp)
    800038d0:	00079663          	bnez	a5,800038dc <vTaskPlaceOnEventListRestricted+0x28>
    800038d4:	30047073          	csrci	mstatus,8
    800038d8:	0000006f          	j	800038d8 <vTaskPlaceOnEventListRestricted+0x24>
    800038dc:	0001e797          	auipc	a5,0x1e
    800038e0:	4e478793          	addi	a5,a5,1252 # 80021dc0 <pxCurrentTCB>
    800038e4:	0007b783          	ld	a5,0(a5)
    800038e8:	03078793          	addi	a5,a5,48
    800038ec:	00078593          	mv	a1,a5
    800038f0:	01813503          	ld	a0,24(sp)
    800038f4:	f95fc0ef          	jal	ra,80000888 <vListInsertEnd>
    800038f8:	0001e797          	auipc	a5,0x1e
    800038fc:	4c878793          	addi	a5,a5,1224 # 80021dc0 <pxCurrentTCB>
    80003900:	0007b783          	ld	a5,0(a5)
    80003904:	00878793          	addi	a5,a5,8
    80003908:	00078513          	mv	a0,a5
    8000390c:	8c8fd0ef          	jal	ra,800009d4 <uxListRemove>
    80003910:	00813703          	ld	a4,8(sp)
    80003914:	00100793          	li	a5,1
    80003918:	02f71463          	bne	a4,a5,80003940 <vTaskPlaceOnEventListRestricted+0x8c>
    8000391c:	0001e797          	auipc	a5,0x1e
    80003920:	4a478793          	addi	a5,a5,1188 # 80021dc0 <pxCurrentTCB>
    80003924:	0007b783          	ld	a5,0(a5)
    80003928:	00878793          	addi	a5,a5,8
    8000392c:	00078593          	mv	a1,a5
    80003930:	0001f517          	auipc	a0,0x1f
    80003934:	94850513          	addi	a0,a0,-1720 # 80022278 <xSuspendedTaskList>
    80003938:	f51fc0ef          	jal	ra,80000888 <vListInsertEnd>
    8000393c:	02c0006f          	j	80003968 <vTaskPlaceOnEventListRestricted+0xb4>
    80003940:	0001f797          	auipc	a5,0x1f
    80003944:	96878793          	addi	a5,a5,-1688 # 800222a8 <xTickCount>
    80003948:	0007a783          	lw	a5,0(a5)
    8000394c:	0007879b          	sext.w	a5,a5
    80003950:	01412703          	lw	a4,20(sp)
    80003954:	00f707bb          	addw	a5,a4,a5
    80003958:	02f12623          	sw	a5,44(sp)
    8000395c:	02c12783          	lw	a5,44(sp)
    80003960:	00078513          	mv	a0,a5
    80003964:	744000ef          	jal	ra,800040a8 <prvAddCurrentTaskToDelayedList>
    80003968:	00000013          	nop
    8000396c:	03813083          	ld	ra,56(sp)
    80003970:	04010113          	addi	sp,sp,64
    80003974:	00008067          	ret

0000000080003978 <xTaskRemoveFromEventList>:
    80003978:	fd010113          	addi	sp,sp,-48
    8000397c:	02113423          	sd	ra,40(sp)
    80003980:	00a13423          	sd	a0,8(sp)
    80003984:	00813783          	ld	a5,8(sp)
    80003988:	0187b783          	ld	a5,24(a5)
    8000398c:	0187b783          	ld	a5,24(a5)
    80003990:	00f13823          	sd	a5,16(sp)
    80003994:	01013783          	ld	a5,16(sp)
    80003998:	00079663          	bnez	a5,800039a4 <xTaskRemoveFromEventList+0x2c>
    8000399c:	30047073          	csrci	mstatus,8
    800039a0:	0000006f          	j	800039a0 <xTaskRemoveFromEventList+0x28>
    800039a4:	01013783          	ld	a5,16(sp)
    800039a8:	03078793          	addi	a5,a5,48
    800039ac:	00078513          	mv	a0,a5
    800039b0:	824fd0ef          	jal	ra,800009d4 <uxListRemove>
    800039b4:	0001f797          	auipc	a5,0x1f
    800039b8:	93478793          	addi	a5,a5,-1740 # 800222e8 <uxSchedulerSuspended>
    800039bc:	0007b783          	ld	a5,0(a5)
    800039c0:	06079e63          	bnez	a5,80003a3c <xTaskRemoveFromEventList+0xc4>
    800039c4:	01013783          	ld	a5,16(sp)
    800039c8:	00878793          	addi	a5,a5,8
    800039cc:	00078513          	mv	a0,a5
    800039d0:	804fd0ef          	jal	ra,800009d4 <uxListRemove>
    800039d4:	01013783          	ld	a5,16(sp)
    800039d8:	0587b703          	ld	a4,88(a5)
    800039dc:	0001f797          	auipc	a5,0x1f
    800039e0:	8d478793          	addi	a5,a5,-1836 # 800222b0 <uxTopReadyPriority>
    800039e4:	0007b783          	ld	a5,0(a5)
    800039e8:	00e7fc63          	bgeu	a5,a4,80003a00 <xTaskRemoveFromEventList+0x88>
    800039ec:	01013783          	ld	a5,16(sp)
    800039f0:	0587b703          	ld	a4,88(a5)
    800039f4:	0001f797          	auipc	a5,0x1f
    800039f8:	8bc78793          	addi	a5,a5,-1860 # 800222b0 <uxTopReadyPriority>
    800039fc:	00e7b023          	sd	a4,0(a5)
    80003a00:	01013783          	ld	a5,16(sp)
    80003a04:	0587b703          	ld	a4,88(a5)
    80003a08:	00070793          	mv	a5,a4
    80003a0c:	00279793          	slli	a5,a5,0x2
    80003a10:	00e787b3          	add	a5,a5,a4
    80003a14:	00379793          	slli	a5,a5,0x3
    80003a18:	0001e717          	auipc	a4,0x1e
    80003a1c:	6e070713          	addi	a4,a4,1760 # 800220f8 <pxReadyTasksLists>
    80003a20:	00e78733          	add	a4,a5,a4
    80003a24:	01013783          	ld	a5,16(sp)
    80003a28:	00878793          	addi	a5,a5,8
    80003a2c:	00078593          	mv	a1,a5
    80003a30:	00070513          	mv	a0,a4
    80003a34:	e55fc0ef          	jal	ra,80000888 <vListInsertEnd>
    80003a38:	01c0006f          	j	80003a54 <xTaskRemoveFromEventList+0xdc>
    80003a3c:	01013783          	ld	a5,16(sp)
    80003a40:	03078793          	addi	a5,a5,48
    80003a44:	00078593          	mv	a1,a5
    80003a48:	0001e517          	auipc	a0,0x1e
    80003a4c:	7d850513          	addi	a0,a0,2008 # 80022220 <xPendingReadyList>
    80003a50:	e39fc0ef          	jal	ra,80000888 <vListInsertEnd>
    80003a54:	01013783          	ld	a5,16(sp)
    80003a58:	0587b703          	ld	a4,88(a5)
    80003a5c:	0001e797          	auipc	a5,0x1e
    80003a60:	36478793          	addi	a5,a5,868 # 80021dc0 <pxCurrentTCB>
    80003a64:	0007b783          	ld	a5,0(a5)
    80003a68:	0587b783          	ld	a5,88(a5)
    80003a6c:	02e7f063          	bgeu	a5,a4,80003a8c <xTaskRemoveFromEventList+0x114>
    80003a70:	00100793          	li	a5,1
    80003a74:	00f13c23          	sd	a5,24(sp)
    80003a78:	0001f797          	auipc	a5,0x1f
    80003a7c:	85078793          	addi	a5,a5,-1968 # 800222c8 <xYieldPending>
    80003a80:	00100713          	li	a4,1
    80003a84:	00e7b023          	sd	a4,0(a5)
    80003a88:	0080006f          	j	80003a90 <xTaskRemoveFromEventList+0x118>
    80003a8c:	00013c23          	sd	zero,24(sp)
    80003a90:	01813783          	ld	a5,24(sp)
    80003a94:	00078513          	mv	a0,a5
    80003a98:	02813083          	ld	ra,40(sp)
    80003a9c:	03010113          	addi	sp,sp,48
    80003aa0:	00008067          	ret

0000000080003aa4 <xTaskRemoveFromUnorderedEventList>:
    80003aa4:	fd010113          	addi	sp,sp,-48
    80003aa8:	02113423          	sd	ra,40(sp)
    80003aac:	00a13423          	sd	a0,8(sp)
    80003ab0:	00058793          	mv	a5,a1
    80003ab4:	00f12223          	sw	a5,4(sp)
    80003ab8:	0001f797          	auipc	a5,0x1f
    80003abc:	83078793          	addi	a5,a5,-2000 # 800222e8 <uxSchedulerSuspended>
    80003ac0:	0007b783          	ld	a5,0(a5)
    80003ac4:	00079663          	bnez	a5,80003ad0 <xTaskRemoveFromUnorderedEventList+0x2c>
    80003ac8:	30047073          	csrci	mstatus,8
    80003acc:	0000006f          	j	80003acc <xTaskRemoveFromUnorderedEventList+0x28>
    80003ad0:	00412703          	lw	a4,4(sp)
    80003ad4:	800007b7          	lui	a5,0x80000
    80003ad8:	00f767b3          	or	a5,a4,a5
    80003adc:	0007871b          	sext.w	a4,a5
    80003ae0:	00813783          	ld	a5,8(sp)
    80003ae4:	00e7a023          	sw	a4,0(a5) # ffffffff80000000 <__stack+0xfffffffefff708e0>
    80003ae8:	00813783          	ld	a5,8(sp)
    80003aec:	0187b783          	ld	a5,24(a5)
    80003af0:	00f13823          	sd	a5,16(sp)
    80003af4:	01013783          	ld	a5,16(sp)
    80003af8:	00079663          	bnez	a5,80003b04 <xTaskRemoveFromUnorderedEventList+0x60>
    80003afc:	30047073          	csrci	mstatus,8
    80003b00:	0000006f          	j	80003b00 <xTaskRemoveFromUnorderedEventList+0x5c>
    80003b04:	00813503          	ld	a0,8(sp)
    80003b08:	ecdfc0ef          	jal	ra,800009d4 <uxListRemove>
    80003b0c:	01013783          	ld	a5,16(sp)
    80003b10:	00878793          	addi	a5,a5,8
    80003b14:	00078513          	mv	a0,a5
    80003b18:	ebdfc0ef          	jal	ra,800009d4 <uxListRemove>
    80003b1c:	01013783          	ld	a5,16(sp)
    80003b20:	0587b703          	ld	a4,88(a5)
    80003b24:	0001e797          	auipc	a5,0x1e
    80003b28:	78c78793          	addi	a5,a5,1932 # 800222b0 <uxTopReadyPriority>
    80003b2c:	0007b783          	ld	a5,0(a5)
    80003b30:	00e7fc63          	bgeu	a5,a4,80003b48 <xTaskRemoveFromUnorderedEventList+0xa4>
    80003b34:	01013783          	ld	a5,16(sp)
    80003b38:	0587b703          	ld	a4,88(a5)
    80003b3c:	0001e797          	auipc	a5,0x1e
    80003b40:	77478793          	addi	a5,a5,1908 # 800222b0 <uxTopReadyPriority>
    80003b44:	00e7b023          	sd	a4,0(a5)
    80003b48:	01013783          	ld	a5,16(sp)
    80003b4c:	0587b703          	ld	a4,88(a5)
    80003b50:	00070793          	mv	a5,a4
    80003b54:	00279793          	slli	a5,a5,0x2
    80003b58:	00e787b3          	add	a5,a5,a4
    80003b5c:	00379793          	slli	a5,a5,0x3
    80003b60:	0001e717          	auipc	a4,0x1e
    80003b64:	59870713          	addi	a4,a4,1432 # 800220f8 <pxReadyTasksLists>
    80003b68:	00e78733          	add	a4,a5,a4
    80003b6c:	01013783          	ld	a5,16(sp)
    80003b70:	00878793          	addi	a5,a5,8
    80003b74:	00078593          	mv	a1,a5
    80003b78:	00070513          	mv	a0,a4
    80003b7c:	d0dfc0ef          	jal	ra,80000888 <vListInsertEnd>
    80003b80:	01013783          	ld	a5,16(sp)
    80003b84:	0587b703          	ld	a4,88(a5)
    80003b88:	0001e797          	auipc	a5,0x1e
    80003b8c:	23878793          	addi	a5,a5,568 # 80021dc0 <pxCurrentTCB>
    80003b90:	0007b783          	ld	a5,0(a5)
    80003b94:	0587b783          	ld	a5,88(a5)
    80003b98:	02e7f063          	bgeu	a5,a4,80003bb8 <xTaskRemoveFromUnorderedEventList+0x114>
    80003b9c:	00100793          	li	a5,1
    80003ba0:	00f13c23          	sd	a5,24(sp)
    80003ba4:	0001e797          	auipc	a5,0x1e
    80003ba8:	72478793          	addi	a5,a5,1828 # 800222c8 <xYieldPending>
    80003bac:	00100713          	li	a4,1
    80003bb0:	00e7b023          	sd	a4,0(a5)
    80003bb4:	0080006f          	j	80003bbc <xTaskRemoveFromUnorderedEventList+0x118>
    80003bb8:	00013c23          	sd	zero,24(sp)
    80003bbc:	01813783          	ld	a5,24(sp)
    80003bc0:	00078513          	mv	a0,a5
    80003bc4:	02813083          	ld	ra,40(sp)
    80003bc8:	03010113          	addi	sp,sp,48
    80003bcc:	00008067          	ret

0000000080003bd0 <vTaskSetTimeOutState>:
    80003bd0:	ff010113          	addi	sp,sp,-16
    80003bd4:	00a13423          	sd	a0,8(sp)
    80003bd8:	00813783          	ld	a5,8(sp)
    80003bdc:	00079663          	bnez	a5,80003be8 <vTaskSetTimeOutState+0x18>
    80003be0:	30047073          	csrci	mstatus,8
    80003be4:	0000006f          	j	80003be4 <vTaskSetTimeOutState+0x14>
    80003be8:	0001e797          	auipc	a5,0x1e
    80003bec:	6e878793          	addi	a5,a5,1768 # 800222d0 <xNumOfOverflows>
    80003bf0:	0007b703          	ld	a4,0(a5)
    80003bf4:	00813783          	ld	a5,8(sp)
    80003bf8:	00e7b023          	sd	a4,0(a5)
    80003bfc:	0001e797          	auipc	a5,0x1e
    80003c00:	6ac78793          	addi	a5,a5,1708 # 800222a8 <xTickCount>
    80003c04:	0007a783          	lw	a5,0(a5)
    80003c08:	0007871b          	sext.w	a4,a5
    80003c0c:	00813783          	ld	a5,8(sp)
    80003c10:	00e7a423          	sw	a4,8(a5)
    80003c14:	00000013          	nop
    80003c18:	01010113          	addi	sp,sp,16
    80003c1c:	00008067          	ret

0000000080003c20 <xTaskCheckForTimeOut>:
    80003c20:	fd010113          	addi	sp,sp,-48
    80003c24:	02113423          	sd	ra,40(sp)
    80003c28:	00a13423          	sd	a0,8(sp)
    80003c2c:	00b13023          	sd	a1,0(sp)
    80003c30:	00813783          	ld	a5,8(sp)
    80003c34:	00079663          	bnez	a5,80003c40 <xTaskCheckForTimeOut+0x20>
    80003c38:	30047073          	csrci	mstatus,8
    80003c3c:	0000006f          	j	80003c3c <xTaskCheckForTimeOut+0x1c>
    80003c40:	00013783          	ld	a5,0(sp)
    80003c44:	00079663          	bnez	a5,80003c50 <xTaskCheckForTimeOut+0x30>
    80003c48:	30047073          	csrci	mstatus,8
    80003c4c:	0000006f          	j	80003c4c <xTaskCheckForTimeOut+0x2c>
    80003c50:	4a9000ef          	jal	ra,800048f8 <vTaskEnterCritical>
    80003c54:	0001e797          	auipc	a5,0x1e
    80003c58:	65478793          	addi	a5,a5,1620 # 800222a8 <xTickCount>
    80003c5c:	0007a783          	lw	a5,0(a5)
    80003c60:	00f12a23          	sw	a5,20(sp)
    80003c64:	00013783          	ld	a5,0(sp)
    80003c68:	0007a783          	lw	a5,0(a5)
    80003c6c:	00078713          	mv	a4,a5
    80003c70:	fff00793          	li	a5,-1
    80003c74:	00f71663          	bne	a4,a5,80003c80 <xTaskCheckForTimeOut+0x60>
    80003c78:	00013c23          	sd	zero,24(sp)
    80003c7c:	0a00006f          	j	80003d1c <xTaskCheckForTimeOut+0xfc>
    80003c80:	00813783          	ld	a5,8(sp)
    80003c84:	0007b703          	ld	a4,0(a5)
    80003c88:	0001e797          	auipc	a5,0x1e
    80003c8c:	64878793          	addi	a5,a5,1608 # 800222d0 <xNumOfOverflows>
    80003c90:	0007b783          	ld	a5,0(a5)
    80003c94:	02f70263          	beq	a4,a5,80003cb8 <xTaskCheckForTimeOut+0x98>
    80003c98:	00813783          	ld	a5,8(sp)
    80003c9c:	0087a703          	lw	a4,8(a5)
    80003ca0:	01412783          	lw	a5,20(sp)
    80003ca4:	0007879b          	sext.w	a5,a5
    80003ca8:	00e7e863          	bltu	a5,a4,80003cb8 <xTaskCheckForTimeOut+0x98>
    80003cac:	00100793          	li	a5,1
    80003cb0:	00f13c23          	sd	a5,24(sp)
    80003cb4:	0680006f          	j	80003d1c <xTaskCheckForTimeOut+0xfc>
    80003cb8:	00813783          	ld	a5,8(sp)
    80003cbc:	0087a783          	lw	a5,8(a5)
    80003cc0:	01412703          	lw	a4,20(sp)
    80003cc4:	40f707bb          	subw	a5,a4,a5
    80003cc8:	0007871b          	sext.w	a4,a5
    80003ccc:	00013783          	ld	a5,0(sp)
    80003cd0:	0007a783          	lw	a5,0(a5)
    80003cd4:	04f77063          	bgeu	a4,a5,80003d14 <xTaskCheckForTimeOut+0xf4>
    80003cd8:	00013783          	ld	a5,0(sp)
    80003cdc:	0007a703          	lw	a4,0(a5)
    80003ce0:	00813783          	ld	a5,8(sp)
    80003ce4:	0087a683          	lw	a3,8(a5)
    80003ce8:	01412783          	lw	a5,20(sp)
    80003cec:	40f687bb          	subw	a5,a3,a5
    80003cf0:	0007879b          	sext.w	a5,a5
    80003cf4:	00f707bb          	addw	a5,a4,a5
    80003cf8:	0007871b          	sext.w	a4,a5
    80003cfc:	00013783          	ld	a5,0(sp)
    80003d00:	00e7a023          	sw	a4,0(a5)
    80003d04:	00813503          	ld	a0,8(sp)
    80003d08:	ec9ff0ef          	jal	ra,80003bd0 <vTaskSetTimeOutState>
    80003d0c:	00013c23          	sd	zero,24(sp)
    80003d10:	00c0006f          	j	80003d1c <xTaskCheckForTimeOut+0xfc>
    80003d14:	00100793          	li	a5,1
    80003d18:	00f13c23          	sd	a5,24(sp)
    80003d1c:	41d000ef          	jal	ra,80004938 <vTaskExitCritical>
    80003d20:	01813783          	ld	a5,24(sp)
    80003d24:	00078513          	mv	a0,a5
    80003d28:	02813083          	ld	ra,40(sp)
    80003d2c:	03010113          	addi	sp,sp,48
    80003d30:	00008067          	ret

0000000080003d34 <vTaskMissedYield>:
    80003d34:	0001e797          	auipc	a5,0x1e
    80003d38:	59478793          	addi	a5,a5,1428 # 800222c8 <xYieldPending>
    80003d3c:	00100713          	li	a4,1
    80003d40:	00e7b023          	sd	a4,0(a5)
    80003d44:	00000013          	nop
    80003d48:	00008067          	ret

0000000080003d4c <uxTaskGetTaskNumber>:
    80003d4c:	fe010113          	addi	sp,sp,-32
    80003d50:	00a13423          	sd	a0,8(sp)
    80003d54:	00813783          	ld	a5,8(sp)
    80003d58:	00078e63          	beqz	a5,80003d74 <uxTaskGetTaskNumber+0x28>
    80003d5c:	00813783          	ld	a5,8(sp)
    80003d60:	00f13823          	sd	a5,16(sp)
    80003d64:	01013783          	ld	a5,16(sp)
    80003d68:	0887b783          	ld	a5,136(a5)
    80003d6c:	00f13c23          	sd	a5,24(sp)
    80003d70:	0080006f          	j	80003d78 <uxTaskGetTaskNumber+0x2c>
    80003d74:	00013c23          	sd	zero,24(sp)
    80003d78:	01813783          	ld	a5,24(sp)
    80003d7c:	00078513          	mv	a0,a5
    80003d80:	02010113          	addi	sp,sp,32
    80003d84:	00008067          	ret

0000000080003d88 <vTaskSetTaskNumber>:
    80003d88:	fe010113          	addi	sp,sp,-32
    80003d8c:	00a13423          	sd	a0,8(sp)
    80003d90:	00b13023          	sd	a1,0(sp)
    80003d94:	00813783          	ld	a5,8(sp)
    80003d98:	00078c63          	beqz	a5,80003db0 <vTaskSetTaskNumber+0x28>
    80003d9c:	00813783          	ld	a5,8(sp)
    80003da0:	00f13c23          	sd	a5,24(sp)
    80003da4:	01813783          	ld	a5,24(sp)
    80003da8:	00013703          	ld	a4,0(sp)
    80003dac:	08e7b423          	sd	a4,136(a5)
    80003db0:	00000013          	nop
    80003db4:	02010113          	addi	sp,sp,32
    80003db8:	00008067          	ret

0000000080003dbc <prvIdleTask>:
    80003dbc:	fe010113          	addi	sp,sp,-32
    80003dc0:	00113c23          	sd	ra,24(sp)
    80003dc4:	00a13423          	sd	a0,8(sp)
    80003dc8:	21c000ef          	jal	ra,80003fe4 <prvCheckTasksWaitingTermination>
    80003dcc:	0001e797          	auipc	a5,0x1e
    80003dd0:	32c78793          	addi	a5,a5,812 # 800220f8 <pxReadyTasksLists>
    80003dd4:	0007b703          	ld	a4,0(a5)
    80003dd8:	00100793          	li	a5,1
    80003ddc:	00e7f463          	bgeu	a5,a4,80003de4 <prvIdleTask+0x28>
    80003de0:	f70fc0ef          	jal	ra,80000550 <vPortYield>
    80003de4:	214050ef          	jal	ra,80008ff8 <vApplicationIdleHook>
    80003de8:	fe1ff06f          	j	80003dc8 <prvIdleTask+0xc>

0000000080003dec <prvInitialiseTCBVariables>:
    80003dec:	fb010113          	addi	sp,sp,-80
    80003df0:	04113423          	sd	ra,72(sp)
    80003df4:	02a13423          	sd	a0,40(sp)
    80003df8:	02b13023          	sd	a1,32(sp)
    80003dfc:	00c13c23          	sd	a2,24(sp)
    80003e00:	00d13823          	sd	a3,16(sp)
    80003e04:	00070793          	mv	a5,a4
    80003e08:	00f11723          	sh	a5,14(sp)
    80003e0c:	02013c23          	sd	zero,56(sp)
    80003e10:	0440006f          	j	80003e54 <prvInitialiseTCBVariables+0x68>
    80003e14:	02013703          	ld	a4,32(sp)
    80003e18:	03813783          	ld	a5,56(sp)
    80003e1c:	00f707b3          	add	a5,a4,a5
    80003e20:	0007c703          	lbu	a4,0(a5)
    80003e24:	02813683          	ld	a3,40(sp)
    80003e28:	03813783          	ld	a5,56(sp)
    80003e2c:	00f687b3          	add	a5,a3,a5
    80003e30:	06e78423          	sb	a4,104(a5)
    80003e34:	02013703          	ld	a4,32(sp)
    80003e38:	03813783          	ld	a5,56(sp)
    80003e3c:	00f707b3          	add	a5,a4,a5
    80003e40:	0007c783          	lbu	a5,0(a5)
    80003e44:	02078063          	beqz	a5,80003e64 <prvInitialiseTCBVariables+0x78>
    80003e48:	03813783          	ld	a5,56(sp)
    80003e4c:	00178793          	addi	a5,a5,1
    80003e50:	02f13c23          	sd	a5,56(sp)
    80003e54:	03813703          	ld	a4,56(sp)
    80003e58:	00f00793          	li	a5,15
    80003e5c:	fae7fce3          	bgeu	a5,a4,80003e14 <prvInitialiseTCBVariables+0x28>
    80003e60:	0080006f          	j	80003e68 <prvInitialiseTCBVariables+0x7c>
    80003e64:	00000013          	nop
    80003e68:	02813783          	ld	a5,40(sp)
    80003e6c:	06078ba3          	sb	zero,119(a5)
    80003e70:	01813703          	ld	a4,24(sp)
    80003e74:	00400793          	li	a5,4
    80003e78:	00e7f663          	bgeu	a5,a4,80003e84 <prvInitialiseTCBVariables+0x98>
    80003e7c:	00400793          	li	a5,4
    80003e80:	00f13c23          	sd	a5,24(sp)
    80003e84:	02813783          	ld	a5,40(sp)
    80003e88:	01813703          	ld	a4,24(sp)
    80003e8c:	04e7bc23          	sd	a4,88(a5)
    80003e90:	02813783          	ld	a5,40(sp)
    80003e94:	01813703          	ld	a4,24(sp)
    80003e98:	08e7b823          	sd	a4,144(a5)
    80003e9c:	02813783          	ld	a5,40(sp)
    80003ea0:	0807bc23          	sd	zero,152(a5)
    80003ea4:	02813783          	ld	a5,40(sp)
    80003ea8:	00878793          	addi	a5,a5,8
    80003eac:	00078513          	mv	a0,a5
    80003eb0:	9bdfc0ef          	jal	ra,8000086c <vListInitialiseItem>
    80003eb4:	02813783          	ld	a5,40(sp)
    80003eb8:	03078793          	addi	a5,a5,48
    80003ebc:	00078513          	mv	a0,a5
    80003ec0:	9adfc0ef          	jal	ra,8000086c <vListInitialiseItem>
    80003ec4:	02813783          	ld	a5,40(sp)
    80003ec8:	02813703          	ld	a4,40(sp)
    80003ecc:	02e7b023          	sd	a4,32(a5)
    80003ed0:	01813783          	ld	a5,24(sp)
    80003ed4:	0007879b          	sext.w	a5,a5
    80003ed8:	00500713          	li	a4,5
    80003edc:	40f707bb          	subw	a5,a4,a5
    80003ee0:	0007871b          	sext.w	a4,a5
    80003ee4:	02813783          	ld	a5,40(sp)
    80003ee8:	02e7a823          	sw	a4,48(a5)
    80003eec:	02813783          	ld	a5,40(sp)
    80003ef0:	02813703          	ld	a4,40(sp)
    80003ef4:	04e7b423          	sd	a4,72(a5)
    80003ef8:	02813783          	ld	a5,40(sp)
    80003efc:	0607bc23          	sd	zero,120(a5)
    80003f00:	02813783          	ld	a5,40(sp)
    80003f04:	0a07a023          	sw	zero,160(a5)
    80003f08:	02813783          	ld	a5,40(sp)
    80003f0c:	0a07a223          	sw	zero,164(a5)
    80003f10:	00000013          	nop
    80003f14:	04813083          	ld	ra,72(sp)
    80003f18:	05010113          	addi	sp,sp,80
    80003f1c:	00008067          	ret

0000000080003f20 <prvInitialiseTaskLists>:
    80003f20:	fe010113          	addi	sp,sp,-32
    80003f24:	00113c23          	sd	ra,24(sp)
    80003f28:	00013423          	sd	zero,8(sp)
    80003f2c:	0380006f          	j	80003f64 <prvInitialiseTaskLists+0x44>
    80003f30:	00813703          	ld	a4,8(sp)
    80003f34:	00070793          	mv	a5,a4
    80003f38:	00279793          	slli	a5,a5,0x2
    80003f3c:	00e787b3          	add	a5,a5,a4
    80003f40:	00379793          	slli	a5,a5,0x3
    80003f44:	0001e717          	auipc	a4,0x1e
    80003f48:	1b470713          	addi	a4,a4,436 # 800220f8 <pxReadyTasksLists>
    80003f4c:	00e787b3          	add	a5,a5,a4
    80003f50:	00078513          	mv	a0,a5
    80003f54:	8c1fc0ef          	jal	ra,80000814 <vListInitialise>
    80003f58:	00813783          	ld	a5,8(sp)
    80003f5c:	00178793          	addi	a5,a5,1
    80003f60:	00f13423          	sd	a5,8(sp)
    80003f64:	00813703          	ld	a4,8(sp)
    80003f68:	00400793          	li	a5,4
    80003f6c:	fce7f2e3          	bgeu	a5,a4,80003f30 <prvInitialiseTaskLists+0x10>
    80003f70:	0001e517          	auipc	a0,0x1e
    80003f74:	25050513          	addi	a0,a0,592 # 800221c0 <xDelayedTaskList1>
    80003f78:	89dfc0ef          	jal	ra,80000814 <vListInitialise>
    80003f7c:	0001e517          	auipc	a0,0x1e
    80003f80:	26c50513          	addi	a0,a0,620 # 800221e8 <xDelayedTaskList2>
    80003f84:	891fc0ef          	jal	ra,80000814 <vListInitialise>
    80003f88:	0001e517          	auipc	a0,0x1e
    80003f8c:	29850513          	addi	a0,a0,664 # 80022220 <xPendingReadyList>
    80003f90:	885fc0ef          	jal	ra,80000814 <vListInitialise>
    80003f94:	0001e517          	auipc	a0,0x1e
    80003f98:	2b450513          	addi	a0,a0,692 # 80022248 <xTasksWaitingTermination>
    80003f9c:	879fc0ef          	jal	ra,80000814 <vListInitialise>
    80003fa0:	0001e517          	auipc	a0,0x1e
    80003fa4:	2d850513          	addi	a0,a0,728 # 80022278 <xSuspendedTaskList>
    80003fa8:	86dfc0ef          	jal	ra,80000814 <vListInitialise>
    80003fac:	0001e797          	auipc	a5,0x1e
    80003fb0:	26478793          	addi	a5,a5,612 # 80022210 <pxDelayedTaskList>
    80003fb4:	0001e717          	auipc	a4,0x1e
    80003fb8:	20c70713          	addi	a4,a4,524 # 800221c0 <xDelayedTaskList1>
    80003fbc:	00e7b023          	sd	a4,0(a5)
    80003fc0:	0001e797          	auipc	a5,0x1e
    80003fc4:	25878793          	addi	a5,a5,600 # 80022218 <pxOverflowDelayedTaskList>
    80003fc8:	0001e717          	auipc	a4,0x1e
    80003fcc:	22070713          	addi	a4,a4,544 # 800221e8 <xDelayedTaskList2>
    80003fd0:	00e7b023          	sd	a4,0(a5)
    80003fd4:	00000013          	nop
    80003fd8:	01813083          	ld	ra,24(sp)
    80003fdc:	02010113          	addi	sp,sp,32
    80003fe0:	00008067          	ret

0000000080003fe4 <prvCheckTasksWaitingTermination>:
    80003fe4:	fe010113          	addi	sp,sp,-32
    80003fe8:	00113c23          	sd	ra,24(sp)
    80003fec:	0980006f          	j	80004084 <prvCheckTasksWaitingTermination+0xa0>
    80003ff0:	de1fe0ef          	jal	ra,80002dd0 <vTaskSuspendAll>
    80003ff4:	0001e797          	auipc	a5,0x1e
    80003ff8:	25478793          	addi	a5,a5,596 # 80022248 <xTasksWaitingTermination>
    80003ffc:	0007b783          	ld	a5,0(a5)
    80004000:	0017b793          	seqz	a5,a5
    80004004:	0ff7f793          	zext.b	a5,a5
    80004008:	00f13423          	sd	a5,8(sp)
    8000400c:	de9fe0ef          	jal	ra,80002df4 <xTaskResumeAll>
    80004010:	00813783          	ld	a5,8(sp)
    80004014:	06079863          	bnez	a5,80004084 <prvCheckTasksWaitingTermination+0xa0>
    80004018:	0e1000ef          	jal	ra,800048f8 <vTaskEnterCritical>
    8000401c:	0001e797          	auipc	a5,0x1e
    80004020:	22c78793          	addi	a5,a5,556 # 80022248 <xTasksWaitingTermination>
    80004024:	0187b783          	ld	a5,24(a5)
    80004028:	0187b783          	ld	a5,24(a5)
    8000402c:	00f13023          	sd	a5,0(sp)
    80004030:	00013783          	ld	a5,0(sp)
    80004034:	00878793          	addi	a5,a5,8
    80004038:	00078513          	mv	a0,a5
    8000403c:	999fc0ef          	jal	ra,800009d4 <uxListRemove>
    80004040:	0001e797          	auipc	a5,0x1e
    80004044:	26078793          	addi	a5,a5,608 # 800222a0 <uxCurrentNumberOfTasks>
    80004048:	0007b783          	ld	a5,0(a5)
    8000404c:	fff78713          	addi	a4,a5,-1
    80004050:	0001e797          	auipc	a5,0x1e
    80004054:	25078793          	addi	a5,a5,592 # 800222a0 <uxCurrentNumberOfTasks>
    80004058:	00e7b023          	sd	a4,0(a5)
    8000405c:	0001e797          	auipc	a5,0x1e
    80004060:	21478793          	addi	a5,a5,532 # 80022270 <uxTasksDeleted>
    80004064:	0007b783          	ld	a5,0(a5)
    80004068:	fff78713          	addi	a4,a5,-1
    8000406c:	0001e797          	auipc	a5,0x1e
    80004070:	20478793          	addi	a5,a5,516 # 80022270 <uxTasksDeleted>
    80004074:	00e7b023          	sd	a4,0(a5)
    80004078:	0c1000ef          	jal	ra,80004938 <vTaskExitCritical>
    8000407c:	00013503          	ld	a0,0(sp)
    80004080:	4b0000ef          	jal	ra,80004530 <prvDeleteTCB>
    80004084:	0001e797          	auipc	a5,0x1e
    80004088:	1ec78793          	addi	a5,a5,492 # 80022270 <uxTasksDeleted>
    8000408c:	0007b783          	ld	a5,0(a5)
    80004090:	f60790e3          	bnez	a5,80003ff0 <prvCheckTasksWaitingTermination+0xc>
    80004094:	00000013          	nop
    80004098:	00000013          	nop
    8000409c:	01813083          	ld	ra,24(sp)
    800040a0:	02010113          	addi	sp,sp,32
    800040a4:	00008067          	ret

00000000800040a8 <prvAddCurrentTaskToDelayedList>:
    800040a8:	fe010113          	addi	sp,sp,-32
    800040ac:	00113c23          	sd	ra,24(sp)
    800040b0:	00050793          	mv	a5,a0
    800040b4:	00f12623          	sw	a5,12(sp)
    800040b8:	0001e797          	auipc	a5,0x1e
    800040bc:	d0878793          	addi	a5,a5,-760 # 80021dc0 <pxCurrentTCB>
    800040c0:	0007b783          	ld	a5,0(a5)
    800040c4:	00c12703          	lw	a4,12(sp)
    800040c8:	00e7a423          	sw	a4,8(a5)
    800040cc:	0001e797          	auipc	a5,0x1e
    800040d0:	1dc78793          	addi	a5,a5,476 # 800222a8 <xTickCount>
    800040d4:	0007a783          	lw	a5,0(a5)
    800040d8:	0007871b          	sext.w	a4,a5
    800040dc:	00c12783          	lw	a5,12(sp)
    800040e0:	0007879b          	sext.w	a5,a5
    800040e4:	02e7f863          	bgeu	a5,a4,80004114 <prvAddCurrentTaskToDelayedList+0x6c>
    800040e8:	0001e797          	auipc	a5,0x1e
    800040ec:	13078793          	addi	a5,a5,304 # 80022218 <pxOverflowDelayedTaskList>
    800040f0:	0007b703          	ld	a4,0(a5)
    800040f4:	0001e797          	auipc	a5,0x1e
    800040f8:	ccc78793          	addi	a5,a5,-820 # 80021dc0 <pxCurrentTCB>
    800040fc:	0007b783          	ld	a5,0(a5)
    80004100:	00878793          	addi	a5,a5,8
    80004104:	00078593          	mv	a1,a5
    80004108:	00070513          	mv	a0,a4
    8000410c:	ff8fc0ef          	jal	ra,80000904 <vListInsert>
    80004110:	0580006f          	j	80004168 <prvAddCurrentTaskToDelayedList+0xc0>
    80004114:	0001e797          	auipc	a5,0x1e
    80004118:	0fc78793          	addi	a5,a5,252 # 80022210 <pxDelayedTaskList>
    8000411c:	0007b703          	ld	a4,0(a5)
    80004120:	0001e797          	auipc	a5,0x1e
    80004124:	ca078793          	addi	a5,a5,-864 # 80021dc0 <pxCurrentTCB>
    80004128:	0007b783          	ld	a5,0(a5)
    8000412c:	00878793          	addi	a5,a5,8
    80004130:	00078593          	mv	a1,a5
    80004134:	00070513          	mv	a0,a4
    80004138:	fccfc0ef          	jal	ra,80000904 <vListInsert>
    8000413c:	0001e797          	auipc	a5,0x1e
    80004140:	1a478793          	addi	a5,a5,420 # 800222e0 <xNextTaskUnblockTime>
    80004144:	0007a783          	lw	a5,0(a5)
    80004148:	0007871b          	sext.w	a4,a5
    8000414c:	00c12783          	lw	a5,12(sp)
    80004150:	0007879b          	sext.w	a5,a5
    80004154:	00e7fa63          	bgeu	a5,a4,80004168 <prvAddCurrentTaskToDelayedList+0xc0>
    80004158:	0001e797          	auipc	a5,0x1e
    8000415c:	18878793          	addi	a5,a5,392 # 800222e0 <xNextTaskUnblockTime>
    80004160:	00c12703          	lw	a4,12(sp)
    80004164:	00e7a023          	sw	a4,0(a5)
    80004168:	00000013          	nop
    8000416c:	01813083          	ld	ra,24(sp)
    80004170:	02010113          	addi	sp,sp,32
    80004174:	00008067          	ret

0000000080004178 <prvAllocateTCBAndStack>:
    80004178:	fd010113          	addi	sp,sp,-48
    8000417c:	02113423          	sd	ra,40(sp)
    80004180:	00050793          	mv	a5,a0
    80004184:	00b13023          	sd	a1,0(sp)
    80004188:	00f11723          	sh	a5,14(sp)
    8000418c:	00013783          	ld	a5,0(sp)
    80004190:	00079e63          	bnez	a5,800041ac <prvAllocateTCBAndStack+0x34>
    80004194:	00e15783          	lhu	a5,14(sp)
    80004198:	00379793          	slli	a5,a5,0x3
    8000419c:	00078513          	mv	a0,a5
    800041a0:	029020ef          	jal	ra,800069c8 <pvPortMalloc>
    800041a4:	00050793          	mv	a5,a0
    800041a8:	0080006f          	j	800041b0 <prvAllocateTCBAndStack+0x38>
    800041ac:	00013783          	ld	a5,0(sp)
    800041b0:	00f13823          	sd	a5,16(sp)
    800041b4:	01013783          	ld	a5,16(sp)
    800041b8:	02078a63          	beqz	a5,800041ec <prvAllocateTCBAndStack+0x74>
    800041bc:	0a800513          	li	a0,168
    800041c0:	009020ef          	jal	ra,800069c8 <pvPortMalloc>
    800041c4:	00a13c23          	sd	a0,24(sp)
    800041c8:	01813783          	ld	a5,24(sp)
    800041cc:	00078a63          	beqz	a5,800041e0 <prvAllocateTCBAndStack+0x68>
    800041d0:	01813783          	ld	a5,24(sp)
    800041d4:	01013703          	ld	a4,16(sp)
    800041d8:	06e7b023          	sd	a4,96(a5)
    800041dc:	0140006f          	j	800041f0 <prvAllocateTCBAndStack+0x78>
    800041e0:	01013503          	ld	a0,16(sp)
    800041e4:	1e9020ef          	jal	ra,80006bcc <vPortFree>
    800041e8:	0080006f          	j	800041f0 <prvAllocateTCBAndStack+0x78>
    800041ec:	00013c23          	sd	zero,24(sp)
    800041f0:	01813783          	ld	a5,24(sp)
    800041f4:	02078263          	beqz	a5,80004218 <prvAllocateTCBAndStack+0xa0>
    800041f8:	01813783          	ld	a5,24(sp)
    800041fc:	0607b703          	ld	a4,96(a5)
    80004200:	00e15783          	lhu	a5,14(sp)
    80004204:	00379793          	slli	a5,a5,0x3
    80004208:	00078613          	mv	a2,a5
    8000420c:	0a500593          	li	a1,165
    80004210:	00070513          	mv	a0,a4
    80004214:	3e5020ef          	jal	ra,80006df8 <memset>
    80004218:	01813783          	ld	a5,24(sp)
    8000421c:	00078513          	mv	a0,a5
    80004220:	02813083          	ld	ra,40(sp)
    80004224:	03010113          	addi	sp,sp,48
    80004228:	00008067          	ret

000000008000422c <prvListTaskWithinSingleList>:
    8000422c:	fa010113          	addi	sp,sp,-96
    80004230:	04113c23          	sd	ra,88(sp)
    80004234:	04813823          	sd	s0,80(sp)
    80004238:	00a13c23          	sd	a0,24(sp)
    8000423c:	00b13823          	sd	a1,16(sp)
    80004240:	00060793          	mv	a5,a2
    80004244:	00f12623          	sw	a5,12(sp)
    80004248:	04013423          	sd	zero,72(sp)
    8000424c:	01013783          	ld	a5,16(sp)
    80004250:	0007b783          	ld	a5,0(a5)
    80004254:	26078263          	beqz	a5,800044b8 <prvListTaskWithinSingleList+0x28c>
    80004258:	01013783          	ld	a5,16(sp)
    8000425c:	04f13023          	sd	a5,64(sp)
    80004260:	04013783          	ld	a5,64(sp)
    80004264:	0087b783          	ld	a5,8(a5)
    80004268:	0087b703          	ld	a4,8(a5)
    8000426c:	04013783          	ld	a5,64(sp)
    80004270:	00e7b423          	sd	a4,8(a5)
    80004274:	04013783          	ld	a5,64(sp)
    80004278:	0087b703          	ld	a4,8(a5)
    8000427c:	04013783          	ld	a5,64(sp)
    80004280:	01078793          	addi	a5,a5,16
    80004284:	00f71c63          	bne	a4,a5,8000429c <prvListTaskWithinSingleList+0x70>
    80004288:	04013783          	ld	a5,64(sp)
    8000428c:	0087b783          	ld	a5,8(a5)
    80004290:	0087b703          	ld	a4,8(a5)
    80004294:	04013783          	ld	a5,64(sp)
    80004298:	00e7b423          	sd	a4,8(a5)
    8000429c:	04013783          	ld	a5,64(sp)
    800042a0:	0087b783          	ld	a5,8(a5)
    800042a4:	0187b783          	ld	a5,24(a5)
    800042a8:	02f13c23          	sd	a5,56(sp)
    800042ac:	01013783          	ld	a5,16(sp)
    800042b0:	02f13823          	sd	a5,48(sp)
    800042b4:	03013783          	ld	a5,48(sp)
    800042b8:	0087b783          	ld	a5,8(a5)
    800042bc:	0087b703          	ld	a4,8(a5)
    800042c0:	03013783          	ld	a5,48(sp)
    800042c4:	00e7b423          	sd	a4,8(a5)
    800042c8:	03013783          	ld	a5,48(sp)
    800042cc:	0087b703          	ld	a4,8(a5)
    800042d0:	03013783          	ld	a5,48(sp)
    800042d4:	01078793          	addi	a5,a5,16
    800042d8:	00f71c63          	bne	a4,a5,800042f0 <prvListTaskWithinSingleList+0xc4>
    800042dc:	03013783          	ld	a5,48(sp)
    800042e0:	0087b783          	ld	a5,8(a5)
    800042e4:	0087b703          	ld	a4,8(a5)
    800042e8:	03013783          	ld	a5,48(sp)
    800042ec:	00e7b423          	sd	a4,8(a5)
    800042f0:	03013783          	ld	a5,48(sp)
    800042f4:	0087b783          	ld	a5,8(a5)
    800042f8:	0187b783          	ld	a5,24(a5)
    800042fc:	02f13423          	sd	a5,40(sp)
    80004300:	04813703          	ld	a4,72(sp)
    80004304:	00070793          	mv	a5,a4
    80004308:	00379793          	slli	a5,a5,0x3
    8000430c:	40e787b3          	sub	a5,a5,a4
    80004310:	00379793          	slli	a5,a5,0x3
    80004314:	00078713          	mv	a4,a5
    80004318:	01813783          	ld	a5,24(sp)
    8000431c:	00e787b3          	add	a5,a5,a4
    80004320:	02813703          	ld	a4,40(sp)
    80004324:	00e7b023          	sd	a4,0(a5)
    80004328:	04813703          	ld	a4,72(sp)
    8000432c:	00070793          	mv	a5,a4
    80004330:	00379793          	slli	a5,a5,0x3
    80004334:	40e787b3          	sub	a5,a5,a4
    80004338:	00379793          	slli	a5,a5,0x3
    8000433c:	00078713          	mv	a4,a5
    80004340:	01813783          	ld	a5,24(sp)
    80004344:	00e787b3          	add	a5,a5,a4
    80004348:	02813703          	ld	a4,40(sp)
    8000434c:	06870713          	addi	a4,a4,104
    80004350:	00e7b423          	sd	a4,8(a5)
    80004354:	04813703          	ld	a4,72(sp)
    80004358:	00070793          	mv	a5,a4
    8000435c:	00379793          	slli	a5,a5,0x3
    80004360:	40e787b3          	sub	a5,a5,a4
    80004364:	00379793          	slli	a5,a5,0x3
    80004368:	00078713          	mv	a4,a5
    8000436c:	01813783          	ld	a5,24(sp)
    80004370:	00e787b3          	add	a5,a5,a4
    80004374:	02813703          	ld	a4,40(sp)
    80004378:	08073703          	ld	a4,128(a4)
    8000437c:	00e7b823          	sd	a4,16(a5)
    80004380:	04813703          	ld	a4,72(sp)
    80004384:	00070793          	mv	a5,a4
    80004388:	00379793          	slli	a5,a5,0x3
    8000438c:	40e787b3          	sub	a5,a5,a4
    80004390:	00379793          	slli	a5,a5,0x3
    80004394:	00078713          	mv	a4,a5
    80004398:	01813783          	ld	a5,24(sp)
    8000439c:	00e787b3          	add	a5,a5,a4
    800043a0:	00c12703          	lw	a4,12(sp)
    800043a4:	00e7ac23          	sw	a4,24(a5)
    800043a8:	04813703          	ld	a4,72(sp)
    800043ac:	00070793          	mv	a5,a4
    800043b0:	00379793          	slli	a5,a5,0x3
    800043b4:	40e787b3          	sub	a5,a5,a4
    800043b8:	00379793          	slli	a5,a5,0x3
    800043bc:	00078713          	mv	a4,a5
    800043c0:	01813783          	ld	a5,24(sp)
    800043c4:	00e787b3          	add	a5,a5,a4
    800043c8:	02813703          	ld	a4,40(sp)
    800043cc:	05873703          	ld	a4,88(a4)
    800043d0:	02e7b023          	sd	a4,32(a5)
    800043d4:	00c12783          	lw	a5,12(sp)
    800043d8:	0007871b          	sext.w	a4,a5
    800043dc:	00300793          	li	a5,3
    800043e0:	02f71c63          	bne	a4,a5,80004418 <prvListTaskWithinSingleList+0x1ec>
    800043e4:	02813783          	ld	a5,40(sp)
    800043e8:	0507b783          	ld	a5,80(a5)
    800043ec:	02078663          	beqz	a5,80004418 <prvListTaskWithinSingleList+0x1ec>
    800043f0:	04813703          	ld	a4,72(sp)
    800043f4:	00070793          	mv	a5,a4
    800043f8:	00379793          	slli	a5,a5,0x3
    800043fc:	40e787b3          	sub	a5,a5,a4
    80004400:	00379793          	slli	a5,a5,0x3
    80004404:	00078713          	mv	a4,a5
    80004408:	01813783          	ld	a5,24(sp)
    8000440c:	00e787b3          	add	a5,a5,a4
    80004410:	00200713          	li	a4,2
    80004414:	00e7ac23          	sw	a4,24(a5)
    80004418:	04813703          	ld	a4,72(sp)
    8000441c:	00070793          	mv	a5,a4
    80004420:	00379793          	slli	a5,a5,0x3
    80004424:	40e787b3          	sub	a5,a5,a4
    80004428:	00379793          	slli	a5,a5,0x3
    8000442c:	00078713          	mv	a4,a5
    80004430:	01813783          	ld	a5,24(sp)
    80004434:	00e787b3          	add	a5,a5,a4
    80004438:	02813703          	ld	a4,40(sp)
    8000443c:	09073703          	ld	a4,144(a4)
    80004440:	02e7b423          	sd	a4,40(a5)
    80004444:	04813703          	ld	a4,72(sp)
    80004448:	00070793          	mv	a5,a4
    8000444c:	00379793          	slli	a5,a5,0x3
    80004450:	40e787b3          	sub	a5,a5,a4
    80004454:	00379793          	slli	a5,a5,0x3
    80004458:	00078713          	mv	a4,a5
    8000445c:	01813783          	ld	a5,24(sp)
    80004460:	00e787b3          	add	a5,a5,a4
    80004464:	0207a823          	sw	zero,48(a5)
    80004468:	02813783          	ld	a5,40(sp)
    8000446c:	0607b683          	ld	a3,96(a5)
    80004470:	04813703          	ld	a4,72(sp)
    80004474:	00070793          	mv	a5,a4
    80004478:	00379793          	slli	a5,a5,0x3
    8000447c:	40e787b3          	sub	a5,a5,a4
    80004480:	00379793          	slli	a5,a5,0x3
    80004484:	00078713          	mv	a4,a5
    80004488:	01813783          	ld	a5,24(sp)
    8000448c:	00e78433          	add	s0,a5,a4
    80004490:	00068513          	mv	a0,a3
    80004494:	03c000ef          	jal	ra,800044d0 <prvTaskCheckFreeStackSpace>
    80004498:	00050793          	mv	a5,a0
    8000449c:	02f41a23          	sh	a5,52(s0)
    800044a0:	04813783          	ld	a5,72(sp)
    800044a4:	00178793          	addi	a5,a5,1
    800044a8:	04f13423          	sd	a5,72(sp)
    800044ac:	02813703          	ld	a4,40(sp)
    800044b0:	03813783          	ld	a5,56(sp)
    800044b4:	def71ce3          	bne	a4,a5,800042ac <prvListTaskWithinSingleList+0x80>
    800044b8:	04813783          	ld	a5,72(sp)
    800044bc:	00078513          	mv	a0,a5
    800044c0:	05813083          	ld	ra,88(sp)
    800044c4:	05013403          	ld	s0,80(sp)
    800044c8:	06010113          	addi	sp,sp,96
    800044cc:	00008067          	ret

00000000800044d0 <prvTaskCheckFreeStackSpace>:
    800044d0:	fe010113          	addi	sp,sp,-32
    800044d4:	00a13423          	sd	a0,8(sp)
    800044d8:	00012e23          	sw	zero,28(sp)
    800044dc:	01c0006f          	j	800044f8 <prvTaskCheckFreeStackSpace+0x28>
    800044e0:	00813783          	ld	a5,8(sp)
    800044e4:	00178793          	addi	a5,a5,1
    800044e8:	00f13423          	sd	a5,8(sp)
    800044ec:	01c12783          	lw	a5,28(sp)
    800044f0:	0017879b          	addiw	a5,a5,1
    800044f4:	00f12e23          	sw	a5,28(sp)
    800044f8:	00813783          	ld	a5,8(sp)
    800044fc:	0007c783          	lbu	a5,0(a5)
    80004500:	00078713          	mv	a4,a5
    80004504:	0a500793          	li	a5,165
    80004508:	fcf70ce3          	beq	a4,a5,800044e0 <prvTaskCheckFreeStackSpace+0x10>
    8000450c:	01c12783          	lw	a5,28(sp)
    80004510:	0037d79b          	srliw	a5,a5,0x3
    80004514:	00f12e23          	sw	a5,28(sp)
    80004518:	01c12783          	lw	a5,28(sp)
    8000451c:	03079793          	slli	a5,a5,0x30
    80004520:	0307d793          	srli	a5,a5,0x30
    80004524:	00078513          	mv	a0,a5
    80004528:	02010113          	addi	sp,sp,32
    8000452c:	00008067          	ret

0000000080004530 <prvDeleteTCB>:
    80004530:	fe010113          	addi	sp,sp,-32
    80004534:	00113c23          	sd	ra,24(sp)
    80004538:	00a13423          	sd	a0,8(sp)
    8000453c:	00813783          	ld	a5,8(sp)
    80004540:	0607b783          	ld	a5,96(a5)
    80004544:	00078513          	mv	a0,a5
    80004548:	684020ef          	jal	ra,80006bcc <vPortFree>
    8000454c:	00813503          	ld	a0,8(sp)
    80004550:	67c020ef          	jal	ra,80006bcc <vPortFree>
    80004554:	00000013          	nop
    80004558:	01813083          	ld	ra,24(sp)
    8000455c:	02010113          	addi	sp,sp,32
    80004560:	00008067          	ret

0000000080004564 <prvResetNextTaskUnblockTime>:
    80004564:	ff010113          	addi	sp,sp,-16
    80004568:	0001e797          	auipc	a5,0x1e
    8000456c:	ca878793          	addi	a5,a5,-856 # 80022210 <pxDelayedTaskList>
    80004570:	0007b783          	ld	a5,0(a5)
    80004574:	0007b783          	ld	a5,0(a5)
    80004578:	00079663          	bnez	a5,80004584 <prvResetNextTaskUnblockTime+0x20>
    8000457c:	00100793          	li	a5,1
    80004580:	0080006f          	j	80004588 <prvResetNextTaskUnblockTime+0x24>
    80004584:	00000793          	li	a5,0
    80004588:	00078c63          	beqz	a5,800045a0 <prvResetNextTaskUnblockTime+0x3c>
    8000458c:	0001e797          	auipc	a5,0x1e
    80004590:	d5478793          	addi	a5,a5,-684 # 800222e0 <xNextTaskUnblockTime>
    80004594:	fff00713          	li	a4,-1
    80004598:	00e7a023          	sw	a4,0(a5)
    8000459c:	0300006f          	j	800045cc <prvResetNextTaskUnblockTime+0x68>
    800045a0:	0001e797          	auipc	a5,0x1e
    800045a4:	c7078793          	addi	a5,a5,-912 # 80022210 <pxDelayedTaskList>
    800045a8:	0007b783          	ld	a5,0(a5)
    800045ac:	0187b783          	ld	a5,24(a5)
    800045b0:	0187b783          	ld	a5,24(a5)
    800045b4:	00f13423          	sd	a5,8(sp)
    800045b8:	00813783          	ld	a5,8(sp)
    800045bc:	0087a703          	lw	a4,8(a5)
    800045c0:	0001e797          	auipc	a5,0x1e
    800045c4:	d2078793          	addi	a5,a5,-736 # 800222e0 <xNextTaskUnblockTime>
    800045c8:	00e7a023          	sw	a4,0(a5)
    800045cc:	00000013          	nop
    800045d0:	01010113          	addi	sp,sp,16
    800045d4:	00008067          	ret

00000000800045d8 <xTaskGetCurrentTaskHandle>:
    800045d8:	ff010113          	addi	sp,sp,-16
    800045dc:	0001d797          	auipc	a5,0x1d
    800045e0:	7e478793          	addi	a5,a5,2020 # 80021dc0 <pxCurrentTCB>
    800045e4:	0007b783          	ld	a5,0(a5)
    800045e8:	00f13423          	sd	a5,8(sp)
    800045ec:	00813783          	ld	a5,8(sp)
    800045f0:	00078513          	mv	a0,a5
    800045f4:	01010113          	addi	sp,sp,16
    800045f8:	00008067          	ret

00000000800045fc <xTaskGetSchedulerState>:
    800045fc:	ff010113          	addi	sp,sp,-16
    80004600:	0001e797          	auipc	a5,0x1e
    80004604:	cb878793          	addi	a5,a5,-840 # 800222b8 <xSchedulerRunning>
    80004608:	0007b783          	ld	a5,0(a5)
    8000460c:	00079863          	bnez	a5,8000461c <xTaskGetSchedulerState+0x20>
    80004610:	00100793          	li	a5,1
    80004614:	00f13423          	sd	a5,8(sp)
    80004618:	0240006f          	j	8000463c <xTaskGetSchedulerState+0x40>
    8000461c:	0001e797          	auipc	a5,0x1e
    80004620:	ccc78793          	addi	a5,a5,-820 # 800222e8 <uxSchedulerSuspended>
    80004624:	0007b783          	ld	a5,0(a5)
    80004628:	00079863          	bnez	a5,80004638 <xTaskGetSchedulerState+0x3c>
    8000462c:	00200793          	li	a5,2
    80004630:	00f13423          	sd	a5,8(sp)
    80004634:	0080006f          	j	8000463c <xTaskGetSchedulerState+0x40>
    80004638:	00013423          	sd	zero,8(sp)
    8000463c:	00813783          	ld	a5,8(sp)
    80004640:	00078513          	mv	a0,a5
    80004644:	01010113          	addi	sp,sp,16
    80004648:	00008067          	ret

000000008000464c <vTaskPriorityInherit>:
    8000464c:	fd010113          	addi	sp,sp,-48
    80004650:	02113423          	sd	ra,40(sp)
    80004654:	00a13423          	sd	a0,8(sp)
    80004658:	00813783          	ld	a5,8(sp)
    8000465c:	00f13c23          	sd	a5,24(sp)
    80004660:	00813783          	ld	a5,8(sp)
    80004664:	14078063          	beqz	a5,800047a4 <vTaskPriorityInherit+0x158>
    80004668:	01813783          	ld	a5,24(sp)
    8000466c:	0587b703          	ld	a4,88(a5)
    80004670:	0001d797          	auipc	a5,0x1d
    80004674:	75078793          	addi	a5,a5,1872 # 80021dc0 <pxCurrentTCB>
    80004678:	0007b783          	ld	a5,0(a5)
    8000467c:	0587b783          	ld	a5,88(a5)
    80004680:	12f77263          	bgeu	a4,a5,800047a4 <vTaskPriorityInherit+0x158>
    80004684:	01813783          	ld	a5,24(sp)
    80004688:	0307a783          	lw	a5,48(a5)
    8000468c:	0007879b          	sext.w	a5,a5
    80004690:	0207c663          	bltz	a5,800046bc <vTaskPriorityInherit+0x70>
    80004694:	0001d797          	auipc	a5,0x1d
    80004698:	72c78793          	addi	a5,a5,1836 # 80021dc0 <pxCurrentTCB>
    8000469c:	0007b783          	ld	a5,0(a5)
    800046a0:	0587b783          	ld	a5,88(a5)
    800046a4:	0007879b          	sext.w	a5,a5
    800046a8:	00500713          	li	a4,5
    800046ac:	40f707bb          	subw	a5,a4,a5
    800046b0:	0007871b          	sext.w	a4,a5
    800046b4:	01813783          	ld	a5,24(sp)
    800046b8:	02e7a823          	sw	a4,48(a5)
    800046bc:	01813783          	ld	a5,24(sp)
    800046c0:	0287b683          	ld	a3,40(a5)
    800046c4:	01813783          	ld	a5,24(sp)
    800046c8:	0587b703          	ld	a4,88(a5)
    800046cc:	00070793          	mv	a5,a4
    800046d0:	00279793          	slli	a5,a5,0x2
    800046d4:	00e787b3          	add	a5,a5,a4
    800046d8:	00379793          	slli	a5,a5,0x3
    800046dc:	0001e717          	auipc	a4,0x1e
    800046e0:	a1c70713          	addi	a4,a4,-1508 # 800220f8 <pxReadyTasksLists>
    800046e4:	00e787b3          	add	a5,a5,a4
    800046e8:	00f69663          	bne	a3,a5,800046f4 <vTaskPriorityInherit+0xa8>
    800046ec:	00100793          	li	a5,1
    800046f0:	0080006f          	j	800046f8 <vTaskPriorityInherit+0xac>
    800046f4:	00000793          	li	a5,0
    800046f8:	08078a63          	beqz	a5,8000478c <vTaskPriorityInherit+0x140>
    800046fc:	01813783          	ld	a5,24(sp)
    80004700:	00878793          	addi	a5,a5,8
    80004704:	00078513          	mv	a0,a5
    80004708:	accfc0ef          	jal	ra,800009d4 <uxListRemove>
    8000470c:	0001d797          	auipc	a5,0x1d
    80004710:	6b478793          	addi	a5,a5,1716 # 80021dc0 <pxCurrentTCB>
    80004714:	0007b783          	ld	a5,0(a5)
    80004718:	0587b703          	ld	a4,88(a5)
    8000471c:	01813783          	ld	a5,24(sp)
    80004720:	04e7bc23          	sd	a4,88(a5)
    80004724:	01813783          	ld	a5,24(sp)
    80004728:	0587b703          	ld	a4,88(a5)
    8000472c:	0001e797          	auipc	a5,0x1e
    80004730:	b8478793          	addi	a5,a5,-1148 # 800222b0 <uxTopReadyPriority>
    80004734:	0007b783          	ld	a5,0(a5)
    80004738:	00e7fc63          	bgeu	a5,a4,80004750 <vTaskPriorityInherit+0x104>
    8000473c:	01813783          	ld	a5,24(sp)
    80004740:	0587b703          	ld	a4,88(a5)
    80004744:	0001e797          	auipc	a5,0x1e
    80004748:	b6c78793          	addi	a5,a5,-1172 # 800222b0 <uxTopReadyPriority>
    8000474c:	00e7b023          	sd	a4,0(a5)
    80004750:	01813783          	ld	a5,24(sp)
    80004754:	0587b703          	ld	a4,88(a5)
    80004758:	00070793          	mv	a5,a4
    8000475c:	00279793          	slli	a5,a5,0x2
    80004760:	00e787b3          	add	a5,a5,a4
    80004764:	00379793          	slli	a5,a5,0x3
    80004768:	0001e717          	auipc	a4,0x1e
    8000476c:	99070713          	addi	a4,a4,-1648 # 800220f8 <pxReadyTasksLists>
    80004770:	00e78733          	add	a4,a5,a4
    80004774:	01813783          	ld	a5,24(sp)
    80004778:	00878793          	addi	a5,a5,8
    8000477c:	00078593          	mv	a1,a5
    80004780:	00070513          	mv	a0,a4
    80004784:	904fc0ef          	jal	ra,80000888 <vListInsertEnd>
    80004788:	01c0006f          	j	800047a4 <vTaskPriorityInherit+0x158>
    8000478c:	0001d797          	auipc	a5,0x1d
    80004790:	63478793          	addi	a5,a5,1588 # 80021dc0 <pxCurrentTCB>
    80004794:	0007b783          	ld	a5,0(a5)
    80004798:	0587b703          	ld	a4,88(a5)
    8000479c:	01813783          	ld	a5,24(sp)
    800047a0:	04e7bc23          	sd	a4,88(a5)
    800047a4:	00000013          	nop
    800047a8:	02813083          	ld	ra,40(sp)
    800047ac:	03010113          	addi	sp,sp,48
    800047b0:	00008067          	ret

00000000800047b4 <xTaskPriorityDisinherit>:
    800047b4:	fd010113          	addi	sp,sp,-48
    800047b8:	02113423          	sd	ra,40(sp)
    800047bc:	00a13423          	sd	a0,8(sp)
    800047c0:	00813783          	ld	a5,8(sp)
    800047c4:	00f13823          	sd	a5,16(sp)
    800047c8:	00013c23          	sd	zero,24(sp)
    800047cc:	00813783          	ld	a5,8(sp)
    800047d0:	10078a63          	beqz	a5,800048e4 <xTaskPriorityDisinherit+0x130>
    800047d4:	0001d797          	auipc	a5,0x1d
    800047d8:	5ec78793          	addi	a5,a5,1516 # 80021dc0 <pxCurrentTCB>
    800047dc:	0007b783          	ld	a5,0(a5)
    800047e0:	01013703          	ld	a4,16(sp)
    800047e4:	00f70663          	beq	a4,a5,800047f0 <xTaskPriorityDisinherit+0x3c>
    800047e8:	30047073          	csrci	mstatus,8
    800047ec:	0000006f          	j	800047ec <xTaskPriorityDisinherit+0x38>
    800047f0:	01013783          	ld	a5,16(sp)
    800047f4:	0987b783          	ld	a5,152(a5)
    800047f8:	00079663          	bnez	a5,80004804 <xTaskPriorityDisinherit+0x50>
    800047fc:	30047073          	csrci	mstatus,8
    80004800:	0000006f          	j	80004800 <xTaskPriorityDisinherit+0x4c>
    80004804:	01013783          	ld	a5,16(sp)
    80004808:	0987b783          	ld	a5,152(a5)
    8000480c:	fff78713          	addi	a4,a5,-1
    80004810:	01013783          	ld	a5,16(sp)
    80004814:	08e7bc23          	sd	a4,152(a5)
    80004818:	01013783          	ld	a5,16(sp)
    8000481c:	0587b703          	ld	a4,88(a5)
    80004820:	01013783          	ld	a5,16(sp)
    80004824:	0907b783          	ld	a5,144(a5)
    80004828:	0af70e63          	beq	a4,a5,800048e4 <xTaskPriorityDisinherit+0x130>
    8000482c:	01013783          	ld	a5,16(sp)
    80004830:	0987b783          	ld	a5,152(a5)
    80004834:	0a079863          	bnez	a5,800048e4 <xTaskPriorityDisinherit+0x130>
    80004838:	01013783          	ld	a5,16(sp)
    8000483c:	00878793          	addi	a5,a5,8
    80004840:	00078513          	mv	a0,a5
    80004844:	990fc0ef          	jal	ra,800009d4 <uxListRemove>
    80004848:	01013783          	ld	a5,16(sp)
    8000484c:	0907b703          	ld	a4,144(a5)
    80004850:	01013783          	ld	a5,16(sp)
    80004854:	04e7bc23          	sd	a4,88(a5)
    80004858:	01013783          	ld	a5,16(sp)
    8000485c:	0587b783          	ld	a5,88(a5)
    80004860:	0007879b          	sext.w	a5,a5
    80004864:	00500713          	li	a4,5
    80004868:	40f707bb          	subw	a5,a4,a5
    8000486c:	0007871b          	sext.w	a4,a5
    80004870:	01013783          	ld	a5,16(sp)
    80004874:	02e7a823          	sw	a4,48(a5)
    80004878:	01013783          	ld	a5,16(sp)
    8000487c:	0587b703          	ld	a4,88(a5)
    80004880:	0001e797          	auipc	a5,0x1e
    80004884:	a3078793          	addi	a5,a5,-1488 # 800222b0 <uxTopReadyPriority>
    80004888:	0007b783          	ld	a5,0(a5)
    8000488c:	00e7fc63          	bgeu	a5,a4,800048a4 <xTaskPriorityDisinherit+0xf0>
    80004890:	01013783          	ld	a5,16(sp)
    80004894:	0587b703          	ld	a4,88(a5)
    80004898:	0001e797          	auipc	a5,0x1e
    8000489c:	a1878793          	addi	a5,a5,-1512 # 800222b0 <uxTopReadyPriority>
    800048a0:	00e7b023          	sd	a4,0(a5)
    800048a4:	01013783          	ld	a5,16(sp)
    800048a8:	0587b703          	ld	a4,88(a5)
    800048ac:	00070793          	mv	a5,a4
    800048b0:	00279793          	slli	a5,a5,0x2
    800048b4:	00e787b3          	add	a5,a5,a4
    800048b8:	00379793          	slli	a5,a5,0x3
    800048bc:	0001e717          	auipc	a4,0x1e
    800048c0:	83c70713          	addi	a4,a4,-1988 # 800220f8 <pxReadyTasksLists>
    800048c4:	00e78733          	add	a4,a5,a4
    800048c8:	01013783          	ld	a5,16(sp)
    800048cc:	00878793          	addi	a5,a5,8
    800048d0:	00078593          	mv	a1,a5
    800048d4:	00070513          	mv	a0,a4
    800048d8:	fb1fb0ef          	jal	ra,80000888 <vListInsertEnd>
    800048dc:	00100793          	li	a5,1
    800048e0:	00f13c23          	sd	a5,24(sp)
    800048e4:	01813783          	ld	a5,24(sp)
    800048e8:	00078513          	mv	a0,a5
    800048ec:	02813083          	ld	ra,40(sp)
    800048f0:	03010113          	addi	sp,sp,48
    800048f4:	00008067          	ret

00000000800048f8 <vTaskEnterCritical>:
    800048f8:	30047073          	csrci	mstatus,8
    800048fc:	0001e797          	auipc	a5,0x1e
    80004900:	9bc78793          	addi	a5,a5,-1604 # 800222b8 <xSchedulerRunning>
    80004904:	0007b783          	ld	a5,0(a5)
    80004908:	02078463          	beqz	a5,80004930 <vTaskEnterCritical+0x38>
    8000490c:	0001d797          	auipc	a5,0x1d
    80004910:	4b478793          	addi	a5,a5,1204 # 80021dc0 <pxCurrentTCB>
    80004914:	0007b783          	ld	a5,0(a5)
    80004918:	0787b703          	ld	a4,120(a5)
    8000491c:	00170713          	addi	a4,a4,1
    80004920:	06e7bc23          	sd	a4,120(a5)
    80004924:	0001d797          	auipc	a5,0x1d
    80004928:	49c78793          	addi	a5,a5,1180 # 80021dc0 <pxCurrentTCB>
    8000492c:	0007b783          	ld	a5,0(a5)
    80004930:	00000013          	nop
    80004934:	00008067          	ret

0000000080004938 <vTaskExitCritical>:
    80004938:	0001e797          	auipc	a5,0x1e
    8000493c:	98078793          	addi	a5,a5,-1664 # 800222b8 <xSchedulerRunning>
    80004940:	0007b783          	ld	a5,0(a5)
    80004944:	04078463          	beqz	a5,8000498c <vTaskExitCritical+0x54>
    80004948:	0001d797          	auipc	a5,0x1d
    8000494c:	47878793          	addi	a5,a5,1144 # 80021dc0 <pxCurrentTCB>
    80004950:	0007b783          	ld	a5,0(a5)
    80004954:	0787b783          	ld	a5,120(a5)
    80004958:	02078a63          	beqz	a5,8000498c <vTaskExitCritical+0x54>
    8000495c:	0001d797          	auipc	a5,0x1d
    80004960:	46478793          	addi	a5,a5,1124 # 80021dc0 <pxCurrentTCB>
    80004964:	0007b783          	ld	a5,0(a5)
    80004968:	0787b703          	ld	a4,120(a5)
    8000496c:	fff70713          	addi	a4,a4,-1
    80004970:	06e7bc23          	sd	a4,120(a5)
    80004974:	0001d797          	auipc	a5,0x1d
    80004978:	44c78793          	addi	a5,a5,1100 # 80021dc0 <pxCurrentTCB>
    8000497c:	0007b783          	ld	a5,0(a5)
    80004980:	0787b783          	ld	a5,120(a5)
    80004984:	00079463          	bnez	a5,8000498c <vTaskExitCritical+0x54>
    80004988:	30046073          	csrsi	mstatus,8
    8000498c:	00000013          	nop
    80004990:	00008067          	ret

0000000080004994 <uxTaskResetEventItemValue>:
    80004994:	ff010113          	addi	sp,sp,-16
    80004998:	0001d797          	auipc	a5,0x1d
    8000499c:	42878793          	addi	a5,a5,1064 # 80021dc0 <pxCurrentTCB>
    800049a0:	0007b783          	ld	a5,0(a5)
    800049a4:	0307a783          	lw	a5,48(a5)
    800049a8:	00f12623          	sw	a5,12(sp)
    800049ac:	0001d797          	auipc	a5,0x1d
    800049b0:	41478793          	addi	a5,a5,1044 # 80021dc0 <pxCurrentTCB>
    800049b4:	0007b783          	ld	a5,0(a5)
    800049b8:	0587b783          	ld	a5,88(a5)
    800049bc:	0007871b          	sext.w	a4,a5
    800049c0:	0001d797          	auipc	a5,0x1d
    800049c4:	40078793          	addi	a5,a5,1024 # 80021dc0 <pxCurrentTCB>
    800049c8:	0007b783          	ld	a5,0(a5)
    800049cc:	00500693          	li	a3,5
    800049d0:	40e6873b          	subw	a4,a3,a4
    800049d4:	0007071b          	sext.w	a4,a4
    800049d8:	02e7a823          	sw	a4,48(a5)
    800049dc:	00c12783          	lw	a5,12(sp)
    800049e0:	00078513          	mv	a0,a5
    800049e4:	01010113          	addi	sp,sp,16
    800049e8:	00008067          	ret

00000000800049ec <pvTaskIncrementMutexHeldCount>:
    800049ec:	0001d797          	auipc	a5,0x1d
    800049f0:	3d478793          	addi	a5,a5,980 # 80021dc0 <pxCurrentTCB>
    800049f4:	0007b783          	ld	a5,0(a5)
    800049f8:	00078e63          	beqz	a5,80004a14 <pvTaskIncrementMutexHeldCount+0x28>
    800049fc:	0001d797          	auipc	a5,0x1d
    80004a00:	3c478793          	addi	a5,a5,964 # 80021dc0 <pxCurrentTCB>
    80004a04:	0007b783          	ld	a5,0(a5)
    80004a08:	0987b703          	ld	a4,152(a5)
    80004a0c:	00170713          	addi	a4,a4,1
    80004a10:	08e7bc23          	sd	a4,152(a5)
    80004a14:	0001d797          	auipc	a5,0x1d
    80004a18:	3ac78793          	addi	a5,a5,940 # 80021dc0 <pxCurrentTCB>
    80004a1c:	0007b783          	ld	a5,0(a5)
    80004a20:	00078513          	mv	a0,a5
    80004a24:	00008067          	ret

0000000080004a28 <ulTaskNotifyTake>:
    80004a28:	fd010113          	addi	sp,sp,-48
    80004a2c:	02113423          	sd	ra,40(sp)
    80004a30:	00a13423          	sd	a0,8(sp)
    80004a34:	00058793          	mv	a5,a1
    80004a38:	00f12223          	sw	a5,4(sp)
